(dp0
S'MCNtuples'
p1
(dp2
S'GluGlu_HToMuMu_M125_13TeV_powheg_pythia8.74X'
p3
ccopy_reg
_reconstructor
p4
(cNtupleProcessing.python.Dataset
Ntuple
p5
c__builtin__
object
p6
Ntp7
Rp8
(dp9
S'test_file'
p10
S'GluGlu_HToMuMu_M125_13TeV_powheg_pythia8.RunIISpring15MiniAODv2-74X_mcRun2_asymptotic_v2-v1.MINIAODSIM.files'
p11
sS'name'
p12
S'/GluGlu_HToMuMu_M125_13TeV_powheg_pythia8/RunIISpring15MiniAODv2-74X_mcRun2_asymptotic_v2-v1/MINIAODSIM'
p13
sS'isData'
p14
I00
sS'timestamp'
p15
S''
p16
sS'storage'
p17
S'EOS'
p18
sS'isSignal'
p19
I01
sS'rootpath'
p20
S'/store/user/vkhriste/higgs_ntuples/mc'
p21
sS'label'
p22
S'GluGlu_HToMuMu_M125_13TeV_powheg_pythia8.RunIISpring15MiniAODv2-74X_mcRun2_asymptotic_v2-v1.MINIAODSIM'
p23
sS'globaltag'
p24
S'74X_mcRun2_asymptotic_v2'
p25
sS'json'
p26
NsS'year'
p27
I2015
sS'cmssw'
p28
S'74X'
p29
sS'initial_cmssw'
p30
g29
sbsS'DYJetsToLL_M-50_TuneCUETP8M1_13TeV-amcatnloFXFX-pythia8.74X'
p31
g4
(g5
g6
Ntp32
Rp33
(dp34
g10
S'DYJetsToLL_M-50_TuneCUETP8M1_13TeV-amcatnloFXFX-pythia8.RunIISpring15MiniAODv2-74X_mcRun2_asymptotic_v2-v1.MINIAODSIM.files'
p35
sg12
S'/DYJetsToLL_M-50_TuneCUETP8M1_13TeV-amcatnloFXFX-pythia8/RunIISpring15MiniAODv2-74X_mcRun2_asymptotic_v2-v1/MINIAODSIM'
p36
sg14
I00
sg15
g16
sg17
g18
sg19
I00
sg20
S'/store/user/vkhriste/higgs_ntuples/mc'
p37
sg22
S'DYJetsToLL_M-50_TuneCUETP8M1_13TeV-amcatnloFXFX-pythia8.RunIISpring15MiniAODv2-74X_mcRun2_asymptotic_v2-v1.MINIAODSIM'
p38
sg24
g25
sg26
Nsg27
I2015
sg28
g29
sg30
g29
sbsS'TTJets_TuneCUETP8M1_13TeV-amcatnloFXFX-pythia8.74X'
p39
g4
(g5
g6
Ntp40
Rp41
(dp42
g10
S'TTJets_TuneCUETP8M1_13TeV-amcatnloFXFX-pythia8.RunIISpring15MiniAODv2-74X_mcRun2_asymptotic_v2-v3.MINIAODSIM.files'
p43
sg12
S'/TTJets_TuneCUETP8M1_13TeV-amcatnloFXFX-pythia8/RunIISpring15MiniAODv2-74X_mcRun2_asymptotic_v2-v3/MINIAODSIM'
p44
sg14
I00
sg15
g16
sg17
g18
sg19
I00
sg20
S'/store/user/vkhriste/higgs_ntuples/mc'
p45
sg22
S'TTJets_TuneCUETP8M1_13TeV-amcatnloFXFX-pythia8.RunIISpring15MiniAODv2-74X_mcRun2_asymptotic_v2-v3.MINIAODSIM'
p46
sg24
g25
sg26
Nsg27
I2015
sg28
g29
sg30
g29
sbsS'VBF_HToMuMu_M125_13TeV_powheg_pythia8.74X'
p47
g4
(g5
g6
Ntp48
Rp49
(dp50
g10
S'VBF_HToMuMu_M125_13TeV_powheg_pythia8.RunIISpring15MiniAODv2-74X_mcRun2_asymptotic_v2-v1.MINIAODSIM.files'
p51
sg12
S'/VBF_HToMuMu_M125_13TeV_powheg_pythia8/RunIISpring15MiniAODv2-74X_mcRun2_asymptotic_v2-v1/MINIAODSIM'
p52
sg14
I00
sg15
g16
sg17
g18
sg19
I01
sg20
S'/store/user/vkhriste/higgs_ntuples/mc'
p53
sg22
S'VBF_HToMuMu_M125_13TeV_powheg_pythia8.RunIISpring15MiniAODv2-74X_mcRun2_asymptotic_v2-v1.MINIAODSIM'
p54
sg24
g25
sg26
Nsg27
I2015
sg28
g29
sg30
g29
sbssS'DataNtuples'
p55
(dp56
S'SingleMuon.Run2016D-PromptReco-v2.MINIAOD.2016_Prompt_16900'
p57
g4
(g5
g6
Ntp58
Rp59
(dp60
g10
S'SingleMuon.Run2016D-PromptReco-v2.MINIAOD.files'
p61
sg12
S'/SingleMuon/Run2016D-PromptReco-v2/MINIAOD'
p62
sg14
I01
sg15
g16
sg17
S'EOS'
p63
sg20
S'/store/user/vkhriste/higgs_ntuples/data'
p64
sg19
Nsg24
S'80X_dataRun2_Prompt_v9'
p65
sg26
S'Cert_271036-277148_13TeV_PromptReco_Collisions16_JSON.txt'
p66
sg27
I2016
sg28
S'80X'
p67
sg22
S'SingleMuon.Run2016D-PromptReco-v2.MINIAOD'
p68
sg30
NsbsS'SingleMuon.Run2016B-PromptReco-v2.MINIAOD.2016_Prompt_7648'
p69
g4
(g5
g6
Ntp70
Rp71
(dp72
g10
S'SingleMuon.Run2016B-PromptReco-v2.MINIAOD.files'
p73
sg12
S'/SingleMuon/Run2016B-PromptReco-v2/MINIAOD'
p74
sg14
I01
sg15
g16
sg17
S'EOS'
p75
sg20
S'/store/user/vkhriste/higgs_ntuples/data'
p76
sg19
Nsg24
S'80X_dataRun2_Prompt_v9'
p77
sg26
S'Cert_271036-276097_13TeV_PromptReco_Collisions16_JSON_NoL1T_v2.txt'
p78
sg27
I2016
sg28
S'80X'
p79
sg22
S'SingleMuon.Run2016B-PromptReco-v2.MINIAOD'
p80
sg30
NsbsS'SingleMuon.Run2015D-05Oct2015-v1.MINIAOD.2015_Prompt'
p81
g4
(g5
g6
Ntp82
Rp83
(dp84
g10
S'SingleMuon.Run2015D-05Oct2015-v1.MINIAOD.files'
p85
sg12
S'/SingleMuon/Run2015D-05Oct2015-v1/MINIAOD'
p86
sg14
I01
sg15
g16
sg17
S'EOS'
p87
sg20
S'/store/user/vkhriste/higgs_ntuples/data'
p88
sg19
Nsg24
S'74X_dataRun2_Prompt_v4'
p89
sg26
S'Cert_246908-260627_13TeV_PromptReco_Collisions15_25ns_JSON_v2.txt'
p90
sg27
I2015
sg28
S'74X'
p91
sg22
S'SingleMuon.Run2015D-05Oct2015-v1.MINIAOD'
p92
sg30
NsbsS'SingleMuon.Run2016E-PromptReco-v2.MINIAOD.2016_Prompt_7648'
p93
g4
(g5
g6
Ntp94
Rp95
(dp96
g10
S'SingleMuon.Run2016E-PromptReco-v2.MINIAOD.files'
p97
sg12
S'/SingleMuon/Run2016E-PromptReco-v2/MINIAOD'
p98
sg14
I01
sg15
g16
sg17
g75
sg20
S'/store/user/vkhriste/higgs_ntuples/data'
p99
sg19
Nsg24
g77
sg26
g78
sg27
I2016
sg28
g79
sg22
S'SingleMuon.Run2016E-PromptReco-v2.MINIAOD'
p100
sg30
NsbsS'SingleMuon.Run2016C-PromptReco-v2.MINIAOD.2016_Prompt_7648'
p101
g4
(g5
g6
Ntp102
Rp103
(dp104
g10
S'SingleMuon.Run2016C-PromptReco-v2.MINIAOD.files'
p105
sg12
S'/SingleMuon/Run2016C-PromptReco-v2/MINIAOD'
p106
sg14
I01
sg15
g16
sg17
g75
sg20
S'/store/user/vkhriste/higgs_ntuples/data'
p107
sg19
Nsg24
g77
sg26
g78
sg27
I2016
sg28
g79
sg22
S'SingleMuon.Run2016C-PromptReco-v2.MINIAOD'
p108
sg30
NsbsS'SingleMuon.Run2016B-PromptReco-v2.MINIAOD.2016_Prompt_16900'
p109
g4
(g5
g6
Ntp110
Rp111
(dp112
g10
g73
sg12
g74
sg14
I01
sg15
g16
sg17
g63
sg20
S'/store/user/vkhriste/higgs_ntuples/data'
p113
sg19
Nsg24
g65
sg26
g66
sg27
I2016
sg28
g67
sg22
g80
sg30
NsbsS'SingleMuon.Run2015D-PromptReco-v4.MINIAOD.2015_Prompt'
p114
g4
(g5
g6
Ntp115
Rp116
(dp117
g10
S'SingleMuon.Run2015D-PromptReco-v4.MINIAOD.files'
p118
sg12
S'/SingleMuon/Run2015D-PromptReco-v4/MINIAOD'
p119
sg14
I01
sg15
g16
sg17
g87
sg20
S'/store/user/vkhriste/higgs_ntuples/data'
p120
sg19
Nsg24
g89
sg26
g90
sg27
I2015
sg28
g91
sg22
S'SingleMuon.Run2015D-PromptReco-v4.MINIAOD'
p121
sg30
NsbsS'SingleMuon.Run2016D-PromptReco-v2.MINIAOD.2016_Prompt_7648'
p122
g4
(g5
g6
Ntp123
Rp124
(dp125
g10
g61
sg12
g62
sg14
I01
sg15
g16
sg17
g75
sg20
S'/store/user/vkhriste/higgs_ntuples/data'
p126
sg19
Nsg24
g77
sg26
g78
sg27
I2016
sg28
g79
sg22
g68
sg30
NsbsS'SingleMuon.Run2015C_25ns-05Oct2015-v1.MINIAOD.2015_Prompt'
p127
g4
(g5
g6
Ntp128
Rp129
(dp130
g10
S'SingleMuon.Run2015C_25ns-05Oct2015-v1.MINIAOD.files'
p131
sg12
S'/SingleMuon/Run2015C_25ns-05Oct2015-v1/MINIAOD'
p132
sg14
I01
sg15
g16
sg17
g87
sg20
S'/store/user/vkhriste/higgs_ntuples/data'
p133
sg19
Nsg24
g89
sg26
g90
sg27
I2015
sg28
g91
sg22
S'SingleMuon.Run2015C_25ns-05Oct2015-v1.MINIAOD'
p134
sg30
NsbsS'SingleMuon.Run2016E-PromptReco-v2.MINIAOD.2016_Prompt_16900'
p135
g4
(g5
g6
Ntp136
Rp137
(dp138
g10
g97
sg12
g98
sg14
I01
sg15
g16
sg17
g63
sg20
S'/store/user/vkhriste/higgs_ntuples/data'
p139
sg19
Nsg24
g65
sg26
g66
sg27
I2016
sg28
g67
sg22
g100
sg30
NsbsS'SingleMuon.Run2016C-PromptReco-v2.MINIAOD.2016_Prompt_16900'
p140
g4
(g5
g6
Ntp141
Rp142
(dp143
g10
g105
sg12
g106
sg14
I01
sg15
g16
sg17
g63
sg20
S'/store/user/vkhriste/higgs_ntuples/data'
p144
sg19
Nsg24
g65
sg26
g66
sg27
I2016
sg28
g67
sg22
g108
sg30
NsbssS'MCDatasets'
p145
(dp146
S'/VBF_HToMuMu_M125_13TeV_powheg_pythia8/RunIIFall15MiniAODv2-PU25nsData2015v1_76X_mcRun2_asymptotic_v12-v1/MINIAODSIM'
p147
g4
(cDataset
MCDataset
p148
g6
Ntp149
Rp150
(dp151
g10
S'VBF_HToMuMu_M125_13TeV_powheg_pythia8.RunIIFall15MiniAODv2-PU25nsData2015v1_76X_mcRun2_asymptotic_v12-v1.MINIAODSIM.files'
p152
sg12
g147
sg14
I00
sg19
I01
sg22
S'VBF_HToMuMu_M125_13TeV_powheg_pythia8.RunIIFall15MiniAODv2-PU25nsData2015v1_76X_mcRun2_asymptotic_v12-v1.MINIAODSIM'
p153
sg27
I2015
sg30
S'76X'
p154
sbsg13
g4
(g148
g6
Ntp155
Rp156
(dp157
g10
g11
sg12
g13
sg14
I00
sg19
I01
sg22
g23
sg27
I2015
sg30
g29
sbsg52
g4
(g148
g6
Ntp158
Rp159
(dp160
g10
g51
sg12
g52
sg14
I00
sg19
I01
sg22
g54
sg27
I2015
sg30
g29
sbsg36
g4
(g148
g6
Ntp161
Rp162
(dp163
g10
g35
sg12
g36
sg14
I00
sg19
I00
sg22
g38
sg27
I2015
sg30
g29
sbsS'/TTJets_TuneCUETP8M1_13TeV-amcatnloFXFX-pythia8/RunIIFall15MiniAODv2-PU25nsData2015v1_76X_mcRun2_asymptotic_v12-v1/MINIAODSIM'
p164
g4
(g148
g6
Ntp165
Rp166
(dp167
g10
S'TTJets_TuneCUETP8M1_13TeV-amcatnloFXFX-pythia8.RunIIFall15MiniAODv2-PU25nsData2015v1_76X_mcRun2_asymptotic_v12-v1.MINIAODSIM.files'
p168
sg12
g164
sg14
I00
sg19
I00
sg22
S'TTJets_TuneCUETP8M1_13TeV-amcatnloFXFX-pythia8.RunIIFall15MiniAODv2-PU25nsData2015v1_76X_mcRun2_asymptotic_v12-v1.MINIAODSIM'
p169
sg27
I2015
sg30
g154
sbsS'/DYJetsToLL_M-50_TuneCUETP8M1_13TeV-amcatnloFXFX-pythia8/RunIIFall15MiniAODv2-PU25nsData2015v1_76X_mcRun2_asymptotic_v12-v1/MINIAODSIM'
p170
g4
(g148
g6
Ntp171
Rp172
(dp173
g10
S'DYJetsToLL_M-50_TuneCUETP8M1_13TeV-amcatnloFXFX-pythia8.RunIIFall15MiniAODv2-PU25nsData2015v1_76X_mcRun2_asymptotic_v12-v1.MINIAODSIM.files'
p174
sg12
g170
sg14
I00
sg19
I01
sg22
S'DYJetsToLL_M-50_TuneCUETP8M1_13TeV-amcatnloFXFX-pythia8.RunIIFall15MiniAODv2-PU25nsData2015v1_76X_mcRun2_asymptotic_v12-v1.MINIAODSIM'
p175
sg27
I2015
sg30
g154
sbsg44
g4
(g148
g6
Ntp176
Rp177
(dp178
g10
g43
sg12
g44
sg14
I00
sg19
I00
sg22
g46
sg27
I2015
sg30
g29
sbsS'/GluGlu_HToMuMu_M125_13TeV_powheg_pythia8/RunIIFall15MiniAODv2-PU25nsData2015v1_76X_mcRun2_asymptotic_v12-v1/MINIAODSIM'
p179
g4
(g148
g6
Ntp180
Rp181
(dp182
g10
S'GluGlu_HToMuMu_M125_13TeV_powheg_pythia8.RunIIFall15MiniAODv2-PU25nsData2015v1_76X_mcRun2_asymptotic_v12-v1.MINIAODSIM.files'
p183
sg12
g179
sg14
I00
sg19
I01
sg22
S'GluGlu_HToMuMu_M125_13TeV_powheg_pythia8.RunIIFall15MiniAODv2-PU25nsData2015v1_76X_mcRun2_asymptotic_v12-v1.MINIAODSIM'
p184
sg27
I2015
sg30
g154
sbssS'jsonfiles'
p185
(dp186
S'2016_Prompt_7648'
p187
g4
(cDataset
JsonFile
p188
g6
Ntp189
Rp190
(dp191
S'url'
p192
NsS'intlumi'
p193
F7648.0
sS'filename'
p194
S'Cert_271036-276097_13TeV_PromptReco_Collisions16_JSON_NoL1T_v2.txt'
p195
sbsS'2015_ReReco'
p196
g4
(g188
g6
Ntp197
Rp198
(dp199
g192
Nsg193
F2318.0
sg194
S'Cert_13TeV_16Dec2015ReReco_Collisions15_25ns_JSON_v2.txt'
p200
sbsS'2016_Prompt_16900'
p201
g4
(g188
g6
Ntp202
Rp203
(dp204
g192
Nsg193
F16900.0
sg194
S'Cert_271036-277148_13TeV_PromptReco_Collisions16_JSON.txt'
p205
sbsS'2015_Prompt'
p206
g4
(g188
g6
Ntp207
Rp208
(dp209
g192
Nsg193
F2169.0
sg194
g90
sbsS'2016_Prompt_12900'
p210
g4
(g188
g6
Ntp211
Rp212
(dp213
g192
Nsg193
F12900.0
sg194
S'Cert_271036-276811_13TeV_PromptReco_Collisions16_JSON.txt'
p214
sbssS'DataDatasets'
p215
(dp216
g132
g4
(cDataset
Dataset
p217
g6
Ntp218
Rp219
(dp220
g27
I2015
sg10
g131
sg12
g132
sg14
I01
sg22
g134
sbsS'/SingleMuon/Run2016B-PromptReco-v2/MINIAOD'
p221
g4
(g217
g6
Ntp222
Rp223
(dp224
g27
I2016
sg10
S'SingleMuon.Run2016B-PromptReco-v2.MINIAOD.files'
p225
sg12
g221
sg14
I01
sg22
S'SingleMuon.Run2016B-PromptReco-v2.MINIAOD'
p226
sbsS'/SingleMuon/Run2015C_25ns-16Dec2015-v1/MINIAOD'
p227
g4
(g217
g6
Ntp228
Rp229
(dp230
g27
I2015
sg10
S'SingleMuon.Run2015C_25ns-16Dec2015-v1.MINIAOD.files'
p231
sg12
g227
sg14
I01
sg22
S'SingleMuon.Run2015C_25ns-16Dec2015-v1.MINIAOD'
p232
sbsS'/SingleMuon/Run2016E-PromptReco-v2/MINIAOD'
p233
g4
(g217
g6
Ntp234
Rp235
(dp236
g27
I2016
sg10
S'SingleMuon.Run2016E-PromptReco-v2.MINIAOD.files'
p237
sg12
g233
sg14
I01
sg22
S'SingleMuon.Run2016E-PromptReco-v2.MINIAOD'
p238
sbsg119
g4
(g217
g6
Ntp239
Rp240
(dp241
g27
I2015
sg10
g118
sg12
g119
sg14
I01
sg22
g121
sbsg86
g4
(g217
g6
Ntp242
Rp243
(dp244
g27
I2015
sg10
g85
sg12
g86
sg14
I01
sg22
g92
sbsS'/SingleMuon/Run2015D-16Dec2015-v1/MINIAOD'
p245
g4
(g217
g6
Ntp246
Rp247
(dp248
g27
I2015
sg10
S'SingleMuon.Run2015D-16Dec2015-v1.MINIAOD.files'
p249
sg12
g245
sg14
I01
sg22
S'SingleMuon.Run2015D-16Dec2015-v1.MINIAOD'
p250
sbsS'/SingleMuon/Run2016C-PromptReco-v2/MINIAOD'
p251
g4
(g217
g6
Ntp252
Rp253
(dp254
g27
I2016
sg10
S'SingleMuon.Run2016C-PromptReco-v2.MINIAOD.files'
p255
sg12
g251
sg14
I01
sg22
S'SingleMuon.Run2016C-PromptReco-v2.MINIAOD'
p256
sbsS'/SingleMuon/Run2016D-PromptReco-v2/MINIAOD'
p257
g4
(g217
g6
Ntp258
Rp259
(dp260
g27
I2016
sg10
S'SingleMuon.Run2016D-PromptReco-v2.MINIAOD.files'
p261
sg12
g257
sg14
I01
sg22
S'SingleMuon.Run2016D-PromptReco-v2.MINIAOD'
p262
sbss.