(dp0
S'MCNtuples'
p1
(dp2
sS'DataNtuples'
p3
(dp4
S'SingleMuon.Run2016D-PromptReco-v2.MINIAOD.2016_Prompt_16900'
p5
ccopy_reg
_reconstructor
p6
(cNtupleProcessing.python.Dataset
Ntuple
p7
c__builtin__
object
p8
Ntp9
Rp10
(dp11
S'test_file'
p12
S'SingleMuon.Run2016D-PromptReco-v2.MINIAOD.files'
p13
sS'name'
p14
S'/SingleMuon/Run2016D-PromptReco-v2/MINIAOD'
p15
sS'isData'
p16
I01
sS'timestamp'
p17
S''
p18
sS'storage'
p19
S'EOS'
p20
sS'isSignal'
p21
NsS'rootpath'
p22
S'/store/user/vkhriste/higgs_ntuples/data'
p23
sS'label'
p24
S'SingleMuon.Run2016D-PromptReco-v2.MINIAOD'
p25
sS'globaltag'
p26
S'80X_dataRun2_Prompt_v9'
p27
sS'json'
p28
S'Cert_271036-277148_13TeV_PromptReco_Collisions16_JSON.txt'
p29
sS'year'
p30
I2016
sS'cmssw'
p31
S'80X'
p32
sS'initial_cmssw'
p33
NsbsS'SingleMuon.Run2016B-PromptReco-v2.MINIAOD.2016_Prompt_16900'
p34
g6
(g7
g8
Ntp35
Rp36
(dp37
g12
S'SingleMuon.Run2016B-PromptReco-v2.MINIAOD.files'
p38
sg14
S'/SingleMuon/Run2016B-PromptReco-v2/MINIAOD'
p39
sg16
I01
sg17
g18
sg19
g20
sg21
Nsg22
S'/store/user/vkhriste/higgs_ntuples/data'
p40
sg24
S'SingleMuon.Run2016B-PromptReco-v2.MINIAOD'
p41
sg26
g27
sg28
g29
sg30
I2016
sg31
g32
sg33
NsbsS'SingleMuon.Run2016E-PromptReco-v2.MINIAOD.2016_Prompt_16900'
p42
g6
(g7
g8
Ntp43
Rp44
(dp45
g12
S'SingleMuon.Run2016E-PromptReco-v2.MINIAOD.files'
p46
sg14
S'/SingleMuon/Run2016E-PromptReco-v2/MINIAOD'
p47
sg16
I01
sg17
g18
sg19
g20
sg21
Nsg22
S'/store/user/vkhriste/higgs_ntuples/data'
p48
sg24
S'SingleMuon.Run2016E-PromptReco-v2.MINIAOD'
p49
sg26
g27
sg28
g29
sg30
I2016
sg31
g32
sg33
NsbsS'SingleMuon.Run2016C-PromptReco-v2.MINIAOD.2016_Prompt_16900'
p50
g6
(g7
g8
Ntp51
Rp52
(dp53
g12
S'SingleMuon.Run2016C-PromptReco-v2.MINIAOD.files'
p54
sg14
S'/SingleMuon/Run2016C-PromptReco-v2/MINIAOD'
p55
sg16
I01
sg17
g18
sg19
g20
sg21
Nsg22
S'/store/user/vkhriste/higgs_ntuples/data'
p56
sg24
S'SingleMuon.Run2016C-PromptReco-v2.MINIAOD'
p57
sg26
g27
sg28
g29
sg30
I2016
sg31
g32
sg33
NsbssS'MCDatasets'
p58
(dp59
S'/VBF_HToMuMu_M125_13TeV_powheg_pythia8/RunIIFall15MiniAODv2-PU25nsData2015v1_76X_mcRun2_asymptotic_v12-v1/MINIAODSIM'
p60
g6
(cDataset
MCDataset
p61
g8
Ntp62
Rp63
(dp64
g12
S'VBF_HToMuMu_M125_13TeV_powheg_pythia8.RunIIFall15MiniAODv2-PU25nsData2015v1_76X_mcRun2_asymptotic_v12-v1.MINIAODSIM.files'
p65
sg14
g60
sg16
I00
sg21
I01
sg24
S'VBF_HToMuMu_M125_13TeV_powheg_pythia8.RunIIFall15MiniAODv2-PU25nsData2015v1_76X_mcRun2_asymptotic_v12-v1.MINIAODSIM'
p66
sg30
I2015
sg33
S'76X'
p67
sbsS'/GluGlu_HToMuMu_M125_13TeV_powheg_pythia8/RunIISpring15MiniAODv2-74X_mcRun2_asymptotic_v2-v1/MINIAODSIM'
p68
g6
(g61
g8
Ntp69
Rp70
(dp71
g12
S'GluGlu_HToMuMu_M125_13TeV_powheg_pythia8.RunIISpring15MiniAODv2-74X_mcRun2_asymptotic_v2-v1.MINIAODSIM.files'
p72
sg14
g68
sg16
I00
sg21
I01
sg24
S'GluGlu_HToMuMu_M125_13TeV_powheg_pythia8.RunIISpring15MiniAODv2-74X_mcRun2_asymptotic_v2-v1.MINIAODSIM'
p73
sg30
I2015
sg33
S'74X'
p74
sbsS'/VBF_HToMuMu_M125_13TeV_powheg_pythia8/RunIISpring15MiniAODv2-74X_mcRun2_asymptotic_v2-v1/MINIAODSIM'
p75
g6
(g61
g8
Ntp76
Rp77
(dp78
g12
S'VBF_HToMuMu_M125_13TeV_powheg_pythia8.RunIISpring15MiniAODv2-74X_mcRun2_asymptotic_v2-v1.MINIAODSIM.files'
p79
sg14
g75
sg16
I00
sg21
I01
sg24
S'VBF_HToMuMu_M125_13TeV_powheg_pythia8.RunIISpring15MiniAODv2-74X_mcRun2_asymptotic_v2-v1.MINIAODSIM'
p80
sg30
I2015
sg33
g74
sbsS'/DYJetsToLL_M-50_TuneCUETP8M1_13TeV-amcatnloFXFX-pythia8/RunIISpring15MiniAODv2-74X_mcRun2_asymptotic_v2-v1/MINIAODSIM'
p81
g6
(g61
g8
Ntp82
Rp83
(dp84
g12
S'DYJetsToLL_M-50_TuneCUETP8M1_13TeV-amcatnloFXFX-pythia8.RunIISpring15MiniAODv2-74X_mcRun2_asymptotic_v2-v1.MINIAODSIM.files'
p85
sg14
g81
sg16
I00
sg21
I00
sg24
S'DYJetsToLL_M-50_TuneCUETP8M1_13TeV-amcatnloFXFX-pythia8.RunIISpring15MiniAODv2-74X_mcRun2_asymptotic_v2-v1.MINIAODSIM'
p86
sg30
I2015
sg33
g74
sbsS'/TTJets_TuneCUETP8M1_13TeV-amcatnloFXFX-pythia8/RunIIFall15MiniAODv2-PU25nsData2015v1_76X_mcRun2_asymptotic_v12-v1/MINIAODSIM'
p87
g6
(g61
g8
Ntp88
Rp89
(dp90
g12
S'TTJets_TuneCUETP8M1_13TeV-amcatnloFXFX-pythia8.RunIIFall15MiniAODv2-PU25nsData2015v1_76X_mcRun2_asymptotic_v12-v1.MINIAODSIM.files'
p91
sg14
g87
sg16
I00
sg21
I00
sg24
S'TTJets_TuneCUETP8M1_13TeV-amcatnloFXFX-pythia8.RunIIFall15MiniAODv2-PU25nsData2015v1_76X_mcRun2_asymptotic_v12-v1.MINIAODSIM'
p92
sg30
I2015
sg33
g67
sbsS'/DYJetsToLL_M-50_TuneCUETP8M1_13TeV-amcatnloFXFX-pythia8/RunIIFall15MiniAODv2-PU25nsData2015v1_76X_mcRun2_asymptotic_v12-v1/MINIAODSIM'
p93
g6
(g61
g8
Ntp94
Rp95
(dp96
g12
S'DYJetsToLL_M-50_TuneCUETP8M1_13TeV-amcatnloFXFX-pythia8.RunIIFall15MiniAODv2-PU25nsData2015v1_76X_mcRun2_asymptotic_v12-v1.MINIAODSIM.files'
p97
sg14
g93
sg16
I00
sg21
I01
sg24
S'DYJetsToLL_M-50_TuneCUETP8M1_13TeV-amcatnloFXFX-pythia8.RunIIFall15MiniAODv2-PU25nsData2015v1_76X_mcRun2_asymptotic_v12-v1.MINIAODSIM'
p98
sg30
I2015
sg33
g67
sbsS'/TTJets_TuneCUETP8M1_13TeV-amcatnloFXFX-pythia8/RunIISpring15MiniAODv2-74X_mcRun2_asymptotic_v2-v3/MINIAODSIM'
p99
g6
(g61
g8
Ntp100
Rp101
(dp102
g12
S'TTJets_TuneCUETP8M1_13TeV-amcatnloFXFX-pythia8.RunIISpring15MiniAODv2-74X_mcRun2_asymptotic_v2-v3.MINIAODSIM.files'
p103
sg14
g99
sg16
I00
sg21
I00
sg24
S'TTJets_TuneCUETP8M1_13TeV-amcatnloFXFX-pythia8.RunIISpring15MiniAODv2-74X_mcRun2_asymptotic_v2-v3.MINIAODSIM'
p104
sg30
I2015
sg33
g74
sbsS'/GluGlu_HToMuMu_M125_13TeV_powheg_pythia8/RunIIFall15MiniAODv2-PU25nsData2015v1_76X_mcRun2_asymptotic_v12-v1/MINIAODSIM'
p105
g6
(g61
g8
Ntp106
Rp107
(dp108
g12
S'GluGlu_HToMuMu_M125_13TeV_powheg_pythia8.RunIIFall15MiniAODv2-PU25nsData2015v1_76X_mcRun2_asymptotic_v12-v1.MINIAODSIM.files'
p109
sg14
g105
sg16
I00
sg21
I01
sg24
S'GluGlu_HToMuMu_M125_13TeV_powheg_pythia8.RunIIFall15MiniAODv2-PU25nsData2015v1_76X_mcRun2_asymptotic_v12-v1.MINIAODSIM'
p110
sg30
I2015
sg33
g67
sbssS'jsonfiles'
p111
(dp112
S'2016_Prompt_7648'
p113
g6
(cDataset
JsonFile
p114
g8
Ntp115
Rp116
(dp117
S'url'
p118
NsS'intlumi'
p119
F7648.0
sS'filename'
p120
S'Cert_271036-276097_13TeV_PromptReco_Collisions16_JSON_NoL1T_v2.txt'
p121
sbsS'2016_Prompt_12900'
p122
g6
(g114
g8
Ntp123
Rp124
(dp125
g118
Nsg119
F12900.0
sg120
S'Cert_271036-276811_13TeV_PromptReco_Collisions16_JSON.txt'
p126
sbsS'2016_Prompt_16900'
p127
g6
(g114
g8
Ntp128
Rp129
(dp130
g118
Nsg119
F16900.0
sg120
g29
sbsS'2015_Prompt'
p131
g6
(g114
g8
Ntp132
Rp133
(dp134
g118
Nsg119
F2169.0
sg120
S'Cert_246908-260627_13TeV_PromptReco_Collisions15_25ns_JSON_v2.txt'
p135
sbsS'2015_ReReco'
p136
g6
(g114
g8
Ntp137
Rp138
(dp139
g118
Nsg119
F2318.0
sg120
S'Cert_13TeV_16Dec2015ReReco_Collisions15_25ns_JSON_v2.txt'
p140
sbssS'DataDatasets'
p141
(dp142
S'/SingleMuon/Run2015C_25ns-05Oct2015-v1/MINIAOD'
p143
g6
(cDataset
Dataset
p144
g8
Ntp145
Rp146
(dp147
g30
I2015
sg12
S'SingleMuon.Run2015C_25ns-05Oct2015-v1.MINIAOD.files'
p148
sg14
g143
sg16
I01
sg24
S'SingleMuon.Run2015C_25ns-05Oct2015-v1.MINIAOD'
p149
sbsS'SingleMuon/Run2015D-PromptReco-v4/MINIAOD'
p150
g6
(g144
g8
Ntp151
Rp152
(dp153
g30
I2015
sg12
S'ingleMuon.Run2015D-PromptReco-v4.MINIAOD.files'
p154
sg14
g150
sg16
I01
sg24
S'ingleMuon.Run2015D-PromptReco-v4.MINIAOD'
p155
sbsg39
g6
(g144
g8
Ntp156
Rp157
(dp158
g30
I2016
sg12
g38
sg14
g39
sg16
I01
sg24
g41
sbsS'/SingleMuon/Run2015C_25ns-16Dec2015-v1/MINIAOD'
p159
g6
(g144
g8
Ntp160
Rp161
(dp162
g30
I2015
sg12
S'SingleMuon.Run2015C_25ns-16Dec2015-v1.MINIAOD.files'
p163
sg14
g159
sg16
I01
sg24
S'SingleMuon.Run2015C_25ns-16Dec2015-v1.MINIAOD'
p164
sbsg47
g6
(g144
g8
Ntp165
Rp166
(dp167
g30
I2016
sg12
g46
sg14
g47
sg16
I01
sg24
g49
sbsS'/SingleMuon/Run2015D-05Oct2015-v1/MINIAOD'
p168
g6
(g144
g8
Ntp169
Rp170
(dp171
g30
I2015
sg12
S'SingleMuon.Run2015D-05Oct2015-v1.MINIAOD.files'
p172
sg14
g168
sg16
I01
sg24
S'SingleMuon.Run2015D-05Oct2015-v1.MINIAOD'
p173
sbsS'/SingleMuon/Run2015D-16Dec2015-v1/MINIAOD'
p174
g6
(g144
g8
Ntp175
Rp176
(dp177
g30
I2015
sg12
S'SingleMuon.Run2015D-16Dec2015-v1.MINIAOD.files'
p178
sg14
g174
sg16
I01
sg24
S'SingleMuon.Run2015D-16Dec2015-v1.MINIAOD'
p179
sbsg55
g6
(g144
g8
Ntp180
Rp181
(dp182
g30
I2016
sg12
g54
sg14
g55
sg16
I01
sg24
g57
sbsg15
g6
(g144
g8
Ntp183
Rp184
(dp185
g30
I2016
sg12
g13
sg14
g15
sg16
I01
sg24
g25
sbss.