(dp0
S'MCNtuples'
p1
(dp2
sS'DataNtuples'
p3
(dp4
sS'MCDatasets'
p5
(dp6
S'/VBF_HToMuMu_M125_13TeV_powheg_pythia8/RunIISpring15MiniAODv2-74X_mcRun2_asymptotic_v2-v1/MINIAODSIM'
p7
ccopy_reg
_reconstructor
p8
(cDataset
MCDataset
p9
c__builtin__
object
p10
Ntp11
Rp12
(dp13
S'test_file'
p14
S'VBF_HToMuMu_M125_13TeV_powheg_pythia8.RunIISpring15MiniAODv2-74X_mcRun2_asymptotic_v2-v1.MINIAODSIM.files'
p15
sS'name'
p16
g7
sS'isData'
p17
I00
sS'isSignal'
p18
I01
sS'label'
p19
S'VBF_HToMuMu_M125_13TeV_powheg_pythia8.RunIISpring15MiniAODv2-74X_mcRun2_asymptotic_v2-v1.MINIAODSIM'
p20
sS'year'
p21
I2015
sS'initial_cmssw'
p22
S'74X'
p23
sbsS'/DYJetsToLL_M-50_TuneCUETP8M1_13TeV-amcatnloFXFX-pythia8/RunIISpring15MiniAODv2-74X_mcRun2_asymptotic_v2-v1/MINIAODSIM'
p24
g8
(g9
g10
Ntp25
Rp26
(dp27
g14
S'DYJetsToLL_M-50_TuneCUETP8M1_13TeV-amcatnloFXFX-pythia8.RunIISpring15MiniAODv2-74X_mcRun2_asymptotic_v2-v1.MINIAODSIM.files'
p28
sg16
g24
sg17
I00
sg18
I00
sg19
S'DYJetsToLL_M-50_TuneCUETP8M1_13TeV-amcatnloFXFX-pythia8.RunIISpring15MiniAODv2-74X_mcRun2_asymptotic_v2-v1.MINIAODSIM'
p29
sg21
I2015
sg22
g23
sbsS'/TTJets_TuneCUETP8M1_13TeV-amcatnloFXFX-pythia8/RunIIFall15MiniAODv2-PU25nsData2015v1_76X_mcRun2_asymptotic_v12-v1/MINIAODSIM'
p30
g8
(g9
g10
Ntp31
Rp32
(dp33
g14
S'TTJets_TuneCUETP8M1_13TeV-amcatnloFXFX-pythia8.RunIIFall15MiniAODv2-PU25nsData2015v1_76X_mcRun2_asymptotic_v12-v1.MINIAODSIM.files'
p34
sg16
g30
sg17
I00
sg18
I00
sg19
S'TTJets_TuneCUETP8M1_13TeV-amcatnloFXFX-pythia8.RunIIFall15MiniAODv2-PU25nsData2015v1_76X_mcRun2_asymptotic_v12-v1.MINIAODSIM'
p35
sg21
I2015
sg22
S'76X'
p36
sbsS'/VBF_HToMuMu_M125_13TeV_powheg_pythia8/RunIIFall15MiniAODv2-PU25nsData2015v1_76X_mcRun2_asymptotic_v12-v1/MINIAODSIM'
p37
g8
(g9
g10
Ntp38
Rp39
(dp40
g14
S'VBF_HToMuMu_M125_13TeV_powheg_pythia8.RunIIFall15MiniAODv2-PU25nsData2015v1_76X_mcRun2_asymptotic_v12-v1.MINIAODSIM.files'
p41
sg16
g37
sg17
I00
sg18
I01
sg19
S'VBF_HToMuMu_M125_13TeV_powheg_pythia8.RunIIFall15MiniAODv2-PU25nsData2015v1_76X_mcRun2_asymptotic_v12-v1.MINIAODSIM'
p42
sg21
I2015
sg22
g36
sbsS'/GluGlu_HToMuMu_M125_13TeV_powheg_pythia8/RunIIFall15MiniAODv2-PU25nsData2015v1_76X_mcRun2_asymptotic_v12-v1/MINIAODSIM'
p43
g8
(g9
g10
Ntp44
Rp45
(dp46
g14
S'GluGlu_HToMuMu_M125_13TeV_powheg_pythia8.RunIIFall15MiniAODv2-PU25nsData2015v1_76X_mcRun2_asymptotic_v12-v1.MINIAODSIM.files'
p47
sg16
g43
sg17
I00
sg18
I01
sg19
S'GluGlu_HToMuMu_M125_13TeV_powheg_pythia8.RunIIFall15MiniAODv2-PU25nsData2015v1_76X_mcRun2_asymptotic_v12-v1.MINIAODSIM'
p48
sg21
I2015
sg22
g36
sbsS'/DYJetsToLL_M-50_TuneCUETP8M1_13TeV-amcatnloFXFX-pythia8/RunIIFall15MiniAODv2-PU25nsData2015v1_76X_mcRun2_asymptotic_v12-v1/MINIAODSIM'
p49
g8
(g9
g10
Ntp50
Rp51
(dp52
g14
S'DYJetsToLL_M-50_TuneCUETP8M1_13TeV-amcatnloFXFX-pythia8.RunIIFall15MiniAODv2-PU25nsData2015v1_76X_mcRun2_asymptotic_v12-v1.MINIAODSIM.files'
p53
sg16
g49
sg17
I00
sg18
I01
sg19
S'DYJetsToLL_M-50_TuneCUETP8M1_13TeV-amcatnloFXFX-pythia8.RunIIFall15MiniAODv2-PU25nsData2015v1_76X_mcRun2_asymptotic_v12-v1.MINIAODSIM'
p54
sg21
I2015
sg22
g36
sbsS'/TTJets_TuneCUETP8M1_13TeV-amcatnloFXFX-pythia8/RunIISpring15MiniAODv2-74X_mcRun2_asymptotic_v2-v3/MINIAODSIM'
p55
g8
(g9
g10
Ntp56
Rp57
(dp58
g14
S'TTJets_TuneCUETP8M1_13TeV-amcatnloFXFX-pythia8.RunIISpring15MiniAODv2-74X_mcRun2_asymptotic_v2-v3.MINIAODSIM.files'
p59
sg16
g55
sg17
I00
sg18
I00
sg19
S'TTJets_TuneCUETP8M1_13TeV-amcatnloFXFX-pythia8.RunIISpring15MiniAODv2-74X_mcRun2_asymptotic_v2-v3.MINIAODSIM'
p60
sg21
I2015
sg22
g23
sbsS'/GluGlu_HToMuMu_M125_13TeV_powheg_pythia8/RunIISpring15MiniAODv2-74X_mcRun2_asymptotic_v2-v1/MINIAODSIM'
p61
g8
(g9
g10
Ntp62
Rp63
(dp64
g14
S'GluGlu_HToMuMu_M125_13TeV_powheg_pythia8.RunIISpring15MiniAODv2-74X_mcRun2_asymptotic_v2-v1.MINIAODSIM.files'
p65
sg16
g61
sg17
I00
sg18
I01
sg19
S'GluGlu_HToMuMu_M125_13TeV_powheg_pythia8.RunIISpring15MiniAODv2-74X_mcRun2_asymptotic_v2-v1.MINIAODSIM'
p66
sg21
I2015
sg22
g23
sbssS'jsonfiles'
p67
(dp68
S'2016_Prompt_7648'
p69
g8
(cDataset
JsonFile
p70
g10
Ntp71
Rp72
(dp73
S'url'
p74
NsS'intlumi'
p75
F7648.0
sS'filename'
p76
S'Cert_271036-276097_13TeV_PromptReco_Collisions16_JSON_NoL1T_v2.txt'
p77
sbsS'2016_Prompt_12900'
p78
g8
(g70
g10
Ntp79
Rp80
(dp81
g74
Nsg75
F12900.0
sg76
S'Cert_271036-276811_13TeV_PromptReco_Collisions16_JSON.txt'
p82
sbsS'2016_Prompt_16900'
p83
g8
(g70
g10
Ntp84
Rp85
(dp86
g74
Nsg75
F16900.0
sg76
S'Cert_271036-277148_13TeV_PromptReco_Collisions16_JSON.txt'
p87
sbsS'2015_Prompt'
p88
g8
(g70
g10
Ntp89
Rp90
(dp91
g74
Nsg75
F2169.0
sg76
S'Cert_246908-260627_13TeV_PromptReco_Collisions15_25ns_JSON_v2.txt'
p92
sbsS'2015_ReReco'
p93
g8
(g70
g10
Ntp94
Rp95
(dp96
g74
Nsg75
F2318.0
sg76
S'Cert_13TeV_16Dec2015ReReco_Collisions15_25ns_JSON_v2.txt'
p97
sbssS'DataDatasets'
p98
(dp99
S'/SingleMuon/Run2015C_25ns-05Oct2015-v1/MINIAOD'
p100
g8
(cDataset
Dataset
p101
g10
Ntp102
Rp103
(dp104
g21
I2015
sg14
S'SingleMuon.Run2015C_25ns-05Oct2015-v1.MINIAOD.files'
p105
sg16
g100
sg17
I01
sg19
S'SingleMuon.Run2015C_25ns-05Oct2015-v1.MINIAOD'
p106
sbsS'/SingleMuon/Run2015D-05Oct2015-v1/MINIAOD'
p107
g8
(g101
g10
Ntp108
Rp109
(dp110
g21
I2015
sg14
S'SingleMuon.Run2015D-05Oct2015-v1.MINIAOD.files'
p111
sg16
g107
sg17
I01
sg19
S'SingleMuon.Run2015D-05Oct2015-v1.MINIAOD'
p112
sbsS'/SingleMuon/Run2015D-16Dec2015-v1/MINIAOD'
p113
g8
(g101
g10
Ntp114
Rp115
(dp116
g21
I2015
sg14
S'SingleMuon.Run2015D-16Dec2015-v1.MINIAOD.files'
p117
sg16
g113
sg17
I01
sg19
S'SingleMuon.Run2015D-16Dec2015-v1.MINIAOD'
p118
sbsS'/SingleMuon/Run2016B-PromptReco-v2/MINIAOD'
p119
g8
(g101
g10
Ntp120
Rp121
(dp122
g21
I2016
sg14
S'SingleMuon.Run2016B-PromptReco-v2.MINIAOD.files'
p123
sg16
g119
sg17
I01
sg19
S'SingleMuon.Run2016B-PromptReco-v2.MINIAOD'
p124
sbsS'SingleMuon/Run2015D-PromptReco-v4/MINIAOD'
p125
g8
(g101
g10
Ntp126
Rp127
(dp128
g21
I2015
sg14
S'ingleMuon.Run2015D-PromptReco-v4.MINIAOD.files'
p129
sg16
g125
sg17
I01
sg19
S'ingleMuon.Run2015D-PromptReco-v4.MINIAOD'
p130
sbsS'/SingleMuon/Run2015C_25ns-16Dec2015-v1/MINIAOD'
p131
g8
(g101
g10
Ntp132
Rp133
(dp134
g21
I2015
sg14
S'SingleMuon.Run2015C_25ns-16Dec2015-v1.MINIAOD.files'
p135
sg16
g131
sg17
I01
sg19
S'SingleMuon.Run2015C_25ns-16Dec2015-v1.MINIAOD'
p136
sbsS'/SingleMuon/Run2016E-PromptReco-v2/MINIAOD'
p137
g8
(g101
g10
Ntp138
Rp139
(dp140
g21
I2016
sg14
S'SingleMuon.Run2016E-PromptReco-v2.MINIAOD.files'
p141
sg16
g137
sg17
I01
sg19
S'SingleMuon.Run2016E-PromptReco-v2.MINIAOD'
p142
sbsS'/SingleMuon/Run2016C-PromptReco-v2/MINIAOD'
p143
g8
(g101
g10
Ntp144
Rp145
(dp146
g21
I2016
sg14
S'SingleMuon.Run2016C-PromptReco-v2.MINIAOD.files'
p147
sg16
g143
sg17
I01
sg19
S'SingleMuon.Run2016C-PromptReco-v2.MINIAOD'
p148
sbsS'/SingleMuon/Run2016D-PromptReco-v2/MINIAOD'
p149
g8
(g101
g10
Ntp150
Rp151
(dp152
g21
I2016
sg14
S'SingleMuon.Run2016D-PromptReco-v2.MINIAOD.files'
p153
sg16
g149
sg17
I01
sg19
S'SingleMuon.Run2016D-PromptReco-v2.MINIAOD'
p154
sbss.