(dp0
S'MCNtuples'
p1
(dp2
S'GluGlu_HToMuMu_M125_13TeV_powheg_pythia8.74X'
p3
ccopy_reg
_reconstructor
p4
(cNtupleProcessing.python.Dataset
Ntuple
p5
c__builtin__
object
p6
Ntp7
Rp8
(dp9
S'test_file'
p10
S'GluGlu_HToMuMu_M125_13TeV_powheg_pythia8.RunIISpring15MiniAODv2-74X_mcRun2_asymptotic_v2-v1.MINIAODSIM.files'
p11
sS'name'
p12
S'/GluGlu_HToMuMu_M125_13TeV_powheg_pythia8/RunIISpring15MiniAODv2-74X_mcRun2_asymptotic_v2-v1/MINIAODSIM'
p13
sS'isData'
p14
I00
sS'timestamp'
p15
S''
p16
sS'storage'
p17
S'EOS'
p18
sS'rootpath'
p19
S'/store/user/vkhriste/higgs_ntuples/mc'
p20
sS'isSignal'
p21
I01
sS'globaltag'
p22
S'74X_mcRun2_asymptotic_v2'
p23
sS'json'
p24
NsS'year'
p25
I2015
sS'cmssw'
p26
S'74X'
p27
sS'label'
p28
S'GluGlu_HToMuMu_M125_13TeV_powheg_pythia8.RunIISpring15MiniAODv2-74X_mcRun2_asymptotic_v2-v1.MINIAODSIM'
p29
sS'initial_cmssw'
p30
g27
sbsS'TTJets_TuneCUETP8M1_13TeV-amcatnloFXFX-pythia8.76X'
p31
g4
(g5
g6
Ntp32
Rp33
(dp34
g10
S'TTJets_TuneCUETP8M1_13TeV-amcatnloFXFX-pythia8.RunIIFall15MiniAODv2-PU25nsData2015v1_76X_mcRun2_asymptotic_v12-v1.MINIAODSIM.files'
p35
sg12
S'/TTJets_TuneCUETP8M1_13TeV-amcatnloFXFX-pythia8/RunIIFall15MiniAODv2-PU25nsData2015v1_76X_mcRun2_asymptotic_v12-v1/MINIAODSIM'
p36
sg14
I00
sg15
Nsg17
S'EOS'
p37
sg21
I00
sg19
S'/store/user/vkhriste/higgs_ntuples/mc'
p38
sg28
S'TTJets_TuneCUETP8M1_13TeV-amcatnloFXFX-pythia8.RunIIFall15MiniAODv2-PU25nsData2015v1_76X_mcRun2_asymptotic_v12-v1.MINIAODSIM'
p39
sg22
S'76X_mcRun2_asymptotic_v12'
p40
sg24
Nsg25
I2015
sg26
S'76X'
p41
sg30
g41
sbsS'DYJetsToLL_M-50_TuneCUETP8M1_13TeV-amcatnloFXFX-pythia8.76X'
p42
g4
(g5
g6
Ntp43
Rp44
(dp45
g10
S'DYJetsToLL_M-50_TuneCUETP8M1_13TeV-amcatnloFXFX-pythia8.RunIIFall15MiniAODv2-PU25nsData2015v1_76X_mcRun2_asymptotic_v12-v1.MINIAODSIM.files'
p46
sg12
S'/DYJetsToLL_M-50_TuneCUETP8M1_13TeV-amcatnloFXFX-pythia8/RunIIFall15MiniAODv2-PU25nsData2015v1_76X_mcRun2_asymptotic_v12-v1/MINIAODSIM'
p47
sg14
I00
sg15
Nsg17
g37
sg21
I01
sg19
S'/store/user/vkhriste/higgs_ntuples/mc'
p48
sg28
S'DYJetsToLL_M-50_TuneCUETP8M1_13TeV-amcatnloFXFX-pythia8.RunIIFall15MiniAODv2-PU25nsData2015v1_76X_mcRun2_asymptotic_v12-v1.MINIAODSIM'
p49
sg22
g40
sg24
Nsg25
I2015
sg26
g41
sg30
g41
sbsS'TTJets_TuneCUETP8M1_13TeV-amcatnloFXFX-pythia8.74X'
p50
g4
(g5
g6
Ntp51
Rp52
(dp53
g10
S'TTJets_TuneCUETP8M1_13TeV-amcatnloFXFX-pythia8.RunIISpring15MiniAODv2-74X_mcRun2_asymptotic_v2-v3.MINIAODSIM.files'
p54
sg12
S'/TTJets_TuneCUETP8M1_13TeV-amcatnloFXFX-pythia8/RunIISpring15MiniAODv2-74X_mcRun2_asymptotic_v2-v3/MINIAODSIM'
p55
sg14
I00
sg15
g16
sg17
g18
sg19
S'/store/user/vkhriste/higgs_ntuples/mc'
p56
sg21
I00
sg22
g23
sg24
Nsg25
I2015
sg26
g27
sg28
S'TTJets_TuneCUETP8M1_13TeV-amcatnloFXFX-pythia8.RunIISpring15MiniAODv2-74X_mcRun2_asymptotic_v2-v3.MINIAODSIM'
p57
sg30
g27
sbsS'GluGlu_HToMuMu_M125_13TeV_powheg_pythia8.76X'
p58
g4
(g5
g6
Ntp59
Rp60
(dp61
g10
S'GluGlu_HToMuMu_M125_13TeV_powheg_pythia8.RunIIFall15MiniAODv2-PU25nsData2015v1_76X_mcRun2_asymptotic_v12-v1.MINIAODSIM.files'
p62
sg12
S'/GluGlu_HToMuMu_M125_13TeV_powheg_pythia8/RunIIFall15MiniAODv2-PU25nsData2015v1_76X_mcRun2_asymptotic_v12-v1/MINIAODSIM'
p63
sg14
I00
sg15
Nsg17
g37
sg21
I01
sg19
S'/store/user/vkhriste/higgs_ntuples/mc'
p64
sg28
S'GluGlu_HToMuMu_M125_13TeV_powheg_pythia8.RunIIFall15MiniAODv2-PU25nsData2015v1_76X_mcRun2_asymptotic_v12-v1.MINIAODSIM'
p65
sg22
g40
sg24
Nsg25
I2015
sg26
g41
sg30
g41
sbsS'VBF_HToMuMu_M125_13TeV_powheg_pythia8.76X'
p66
g4
(g5
g6
Ntp67
Rp68
(dp69
g10
S'VBF_HToMuMu_M125_13TeV_powheg_pythia8.RunIIFall15MiniAODv2-PU25nsData2015v1_76X_mcRun2_asymptotic_v12-v1.MINIAODSIM.files'
p70
sg12
S'/VBF_HToMuMu_M125_13TeV_powheg_pythia8/RunIIFall15MiniAODv2-PU25nsData2015v1_76X_mcRun2_asymptotic_v12-v1/MINIAODSIM'
p71
sg14
I00
sg15
Nsg17
g37
sg21
I01
sg19
S'/store/user/vkhriste/higgs_ntuples/mc'
p72
sg28
S'VBF_HToMuMu_M125_13TeV_powheg_pythia8.RunIIFall15MiniAODv2-PU25nsData2015v1_76X_mcRun2_asymptotic_v12-v1.MINIAODSIM'
p73
sg22
g40
sg24
Nsg25
I2015
sg26
g41
sg30
g41
sbsS'DYJetsToLL_M-50_TuneCUETP8M1_13TeV-amcatnloFXFX-pythia8.74X'
p74
g4
(g5
g6
Ntp75
Rp76
(dp77
g10
S'DYJetsToLL_M-50_TuneCUETP8M1_13TeV-amcatnloFXFX-pythia8.RunIISpring15MiniAODv2-74X_mcRun2_asymptotic_v2-v1.MINIAODSIM.files'
p78
sg12
S'/DYJetsToLL_M-50_TuneCUETP8M1_13TeV-amcatnloFXFX-pythia8/RunIISpring15MiniAODv2-74X_mcRun2_asymptotic_v2-v1/MINIAODSIM'
p79
sg14
I00
sg15
g16
sg17
g18
sg19
S'/store/user/vkhriste/higgs_ntuples/mc'
p80
sg21
I00
sg22
g23
sg24
Nsg25
I2015
sg26
g27
sg28
S'DYJetsToLL_M-50_TuneCUETP8M1_13TeV-amcatnloFXFX-pythia8.RunIISpring15MiniAODv2-74X_mcRun2_asymptotic_v2-v1.MINIAODSIM'
p81
sg30
g27
sbsS'VBF_HToMuMu_M125_13TeV_powheg_pythia8.74X'
p82
g4
(g5
g6
Ntp83
Rp84
(dp85
g10
S'VBF_HToMuMu_M125_13TeV_powheg_pythia8.RunIISpring15MiniAODv2-74X_mcRun2_asymptotic_v2-v1.MINIAODSIM.files'
p86
sg12
S'/VBF_HToMuMu_M125_13TeV_powheg_pythia8/RunIISpring15MiniAODv2-74X_mcRun2_asymptotic_v2-v1/MINIAODSIM'
p87
sg14
I00
sg15
g16
sg17
g18
sg19
S'/store/user/vkhriste/higgs_ntuples/mc'
p88
sg21
I01
sg22
g23
sg24
Nsg25
I2015
sg26
g27
sg28
S'VBF_HToMuMu_M125_13TeV_powheg_pythia8.RunIISpring15MiniAODv2-74X_mcRun2_asymptotic_v2-v1.MINIAODSIM'
p89
sg30
g27
sbssS'DataNtuples'
p90
(dp91
S'SingleMuon.Run2016D-PromptReco-v2.MINIAOD.2016_Prompt_16900'
p92
g4
(g5
g6
Ntp93
Rp94
(dp95
g10
S'SingleMuon.Run2016D-PromptReco-v2.MINIAOD.files'
p96
sg12
S'/SingleMuon/Run2016D-PromptReco-v2/MINIAOD'
p97
sg14
I01
sg15
g16
sg17
S'EOS'
p98
sg19
S'/store/user/vkhriste/higgs_ntuples/data'
p99
sg21
Nsg22
S'80X_dataRun2_Prompt_v9'
p100
sg24
S'Cert_271036-277148_13TeV_PromptReco_Collisions16_JSON.txt'
p101
sg25
I2016
sg26
S'80X'
p102
sg28
S'SingleMuon.Run2016D-PromptReco-v2.MINIAOD'
p103
sg30
NsbsS'SingleMuon.Run2016B-PromptReco-v2.MINIAOD.2016_Prompt_7648'
p104
g4
(g5
g6
Ntp105
Rp106
(dp107
g10
S'SingleMuon.Run2016B-PromptReco-v2.MINIAOD.files'
p108
sg12
S'/SingleMuon/Run2016B-PromptReco-v2/MINIAOD'
p109
sg14
I01
sg15
g16
sg17
S'EOS'
p110
sg19
S'/store/user/vkhriste/higgs_ntuples/data'
p111
sg21
Nsg22
S'80X_dataRun2_Prompt_v9'
p112
sg24
S'Cert_271036-276097_13TeV_PromptReco_Collisions16_JSON_NoL1T_v2.txt'
p113
sg25
I2016
sg26
S'80X'
p114
sg28
S'SingleMuon.Run2016B-PromptReco-v2.MINIAOD'
p115
sg30
NsbsS'SingleMuon.Run2015D-05Oct2015-v1.MINIAOD.2015_Prompt'
p116
g4
(g5
g6
Ntp117
Rp118
(dp119
g10
S'SingleMuon.Run2015D-05Oct2015-v1.MINIAOD.files'
p120
sg12
S'/SingleMuon/Run2015D-05Oct2015-v1/MINIAOD'
p121
sg14
I01
sg15
g16
sg17
S'EOS'
p122
sg19
S'/store/user/vkhriste/higgs_ntuples/data'
p123
sg21
Nsg22
S'74X_dataRun2_Prompt_v4'
p124
sg24
S'Cert_246908-260627_13TeV_PromptReco_Collisions15_25ns_JSON_v2.txt'
p125
sg25
I2015
sg26
S'74X'
p126
sg28
S'SingleMuon.Run2015D-05Oct2015-v1.MINIAOD'
p127
sg30
NsbsS'SingleMuon.Run2016E-PromptReco-v2.MINIAOD.2016_Prompt_7648'
p128
g4
(g5
g6
Ntp129
Rp130
(dp131
g10
S'SingleMuon.Run2016E-PromptReco-v2.MINIAOD.files'
p132
sg12
S'/SingleMuon/Run2016E-PromptReco-v2/MINIAOD'
p133
sg14
I01
sg15
g16
sg17
g110
sg19
S'/store/user/vkhriste/higgs_ntuples/data'
p134
sg21
Nsg22
g112
sg24
g113
sg25
I2016
sg26
g114
sg28
S'SingleMuon.Run2016E-PromptReco-v2.MINIAOD'
p135
sg30
NsbsS'SingleMuon.Run2016C-PromptReco-v2.MINIAOD.2016_Prompt_7648'
p136
g4
(g5
g6
Ntp137
Rp138
(dp139
g10
S'SingleMuon.Run2016C-PromptReco-v2.MINIAOD.files'
p140
sg12
S'/SingleMuon/Run2016C-PromptReco-v2/MINIAOD'
p141
sg14
I01
sg15
g16
sg17
g110
sg19
S'/store/user/vkhriste/higgs_ntuples/data'
p142
sg21
Nsg22
g112
sg24
g113
sg25
I2016
sg26
g114
sg28
S'SingleMuon.Run2016C-PromptReco-v2.MINIAOD'
p143
sg30
NsbsS'SingleMuon.Run2016B-PromptReco-v2.MINIAOD.2016_Prompt_16900'
p144
g4
(g5
g6
Ntp145
Rp146
(dp147
g10
g108
sg12
g109
sg14
I01
sg15
g16
sg17
g98
sg19
S'/store/user/vkhriste/higgs_ntuples/data'
p148
sg21
Nsg22
g100
sg24
g101
sg25
I2016
sg26
g102
sg28
g115
sg30
NsbsS'SingleMuon.Run2015D-PromptReco-v4.MINIAOD.2015_Prompt'
p149
g4
(g5
g6
Ntp150
Rp151
(dp152
g10
S'SingleMuon.Run2015D-PromptReco-v4.MINIAOD.files'
p153
sg12
S'/SingleMuon/Run2015D-PromptReco-v4/MINIAOD'
p154
sg14
I01
sg15
g16
sg17
g122
sg19
S'/store/user/vkhriste/higgs_ntuples/data'
p155
sg21
Nsg22
g124
sg24
g125
sg25
I2015
sg26
g126
sg28
S'SingleMuon.Run2015D-PromptReco-v4.MINIAOD'
p156
sg30
NsbsS'SingleMuon.Run2015D-16Dec2015-v1.MINIAOD.2015_ReReco'
p157
g4
(g5
g6
Ntp158
Rp159
(dp160
g10
S'SingleMuon.Run2015D-16Dec2015-v1.MINIAOD.files'
p161
sg12
S'/SingleMuon/Run2015D-16Dec2015-v1/MINIAOD'
p162
sg14
I01
sg15
g16
sg17
S'EOS'
p163
sg19
S'/store/user/vkhriste/higgs_ntuples/data'
p164
sg21
Nsg22
S'76X_dataRun2_v15'
p165
sg24
S'Cert_13TeV_16Dec2015ReReco_Collisions15_25ns_JSON_v2.txt'
p166
sg25
I2015
sg26
S'76X'
p167
sg28
S'SingleMuon.Run2015D-16Dec2015-v1.MINIAOD'
p168
sg30
NsbsS'SingleMuon.Run2016D-PromptReco-v2.MINIAOD.2016_Prompt_7648'
p169
g4
(g5
g6
Ntp170
Rp171
(dp172
g10
g96
sg12
g97
sg14
I01
sg15
g16
sg17
g110
sg19
S'/store/user/vkhriste/higgs_ntuples/data'
p173
sg21
Nsg22
g112
sg24
g113
sg25
I2016
sg26
g114
sg28
g103
sg30
NsbsS'SingleMuon.Run2015C_25ns-05Oct2015-v1.MINIAOD.2015_Prompt'
p174
g4
(g5
g6
Ntp175
Rp176
(dp177
g10
S'SingleMuon.Run2015C_25ns-05Oct2015-v1.MINIAOD.files'
p178
sg12
S'/SingleMuon/Run2015C_25ns-05Oct2015-v1/MINIAOD'
p179
sg14
I01
sg15
g16
sg17
g122
sg19
S'/store/user/vkhriste/higgs_ntuples/data'
p180
sg21
Nsg22
g124
sg24
g125
sg25
I2015
sg26
g126
sg28
S'SingleMuon.Run2015C_25ns-05Oct2015-v1.MINIAOD'
p181
sg30
NsbsS'SingleMuon.Run2015C_25ns-16Dec2015-v1.MINIAOD.2015_ReReco'
p182
g4
(g5
g6
Ntp183
Rp184
(dp185
g10
S'SingleMuon.Run2015C_25ns-16Dec2015-v1.MINIAOD.files'
p186
sg12
S'/SingleMuon/Run2015C_25ns-16Dec2015-v1/MINIAOD'
p187
sg14
I01
sg15
g16
sg17
g163
sg19
S'/store/user/vkhriste/higgs_ntuples/data'
p188
sg21
Nsg22
g165
sg24
g166
sg25
I2015
sg26
g167
sg28
S'SingleMuon.Run2015C_25ns-16Dec2015-v1.MINIAOD'
p189
sg30
NsbsS'SingleMuon.Run2016E-PromptReco-v2.MINIAOD.2016_Prompt_16900'
p190
g4
(g5
g6
Ntp191
Rp192
(dp193
g10
g132
sg12
g133
sg14
I01
sg15
g16
sg17
g98
sg19
S'/store/user/vkhriste/higgs_ntuples/data'
p194
sg21
Nsg22
g100
sg24
g101
sg25
I2016
sg26
g102
sg28
g135
sg30
NsbsS'SingleMuon.Run2016C-PromptReco-v2.MINIAOD.2016_Prompt_16900'
p195
g4
(g5
g6
Ntp196
Rp197
(dp198
g10
g140
sg12
g141
sg14
I01
sg15
g16
sg17
g98
sg19
S'/store/user/vkhriste/higgs_ntuples/data'
p199
sg21
Nsg22
g100
sg24
g101
sg25
I2016
sg26
g102
sg28
g143
sg30
NsbssS'MCDatasets'
p200
(dp201
g71
g4
(cDataset
MCDataset
p202
g6
Ntp203
Rp204
(dp205
g10
g70
sg12
g71
sg14
I00
sg21
I01
sg28
g73
sg25
I2015
sg30
g41
sbsg13
g4
(g202
g6
Ntp206
Rp207
(dp208
g10
g11
sg12
g13
sg14
I00
sg21
I01
sg28
g29
sg25
I2015
sg30
g27
sbsg87
g4
(g202
g6
Ntp209
Rp210
(dp211
g10
g86
sg12
g87
sg14
I00
sg21
I01
sg28
g89
sg25
I2015
sg30
g27
sbsg79
g4
(g202
g6
Ntp212
Rp213
(dp214
g10
g78
sg12
g79
sg14
I00
sg21
I00
sg28
g81
sg25
I2015
sg30
g27
sbsg36
g4
(g202
g6
Ntp215
Rp216
(dp217
g10
g35
sg12
g36
sg14
I00
sg21
I00
sg28
g39
sg25
I2015
sg30
g41
sbsg47
g4
(g202
g6
Ntp218
Rp219
(dp220
g10
g46
sg12
g47
sg14
I00
sg21
I01
sg28
g49
sg25
I2015
sg30
g41
sbsg55
g4
(g202
g6
Ntp221
Rp222
(dp223
g10
g54
sg12
g55
sg14
I00
sg21
I00
sg28
g57
sg25
I2015
sg30
g27
sbsg63
g4
(g202
g6
Ntp224
Rp225
(dp226
g10
g62
sg12
g63
sg14
I00
sg21
I01
sg28
g65
sg25
I2015
sg30
g41
sbssS'jsonfiles'
p227
(dp228
S'2016_Prompt_7648'
p229
g4
(cDataset
JsonFile
p230
g6
Ntp231
Rp232
(dp233
S'url'
p234
NsS'intlumi'
p235
F7648.0
sS'filename'
p236
S'Cert_271036-276097_13TeV_PromptReco_Collisions16_JSON_NoL1T_v2.txt'
p237
sbsS'2015_ReReco'
p238
g4
(g230
g6
Ntp239
Rp240
(dp241
g234
Nsg235
F2318.0
sg236
g166
sbsS'2016_Prompt_16900'
p242
g4
(g230
g6
Ntp243
Rp244
(dp245
g234
Nsg235
F16900.0
sg236
S'Cert_271036-277148_13TeV_PromptReco_Collisions16_JSON.txt'
p246
sbsS'2015_Prompt'
p247
g4
(g230
g6
Ntp248
Rp249
(dp250
g234
Nsg235
F2169.0
sg236
g125
sbsS'2016_Prompt_12900'
p251
g4
(g230
g6
Ntp252
Rp253
(dp254
g234
Nsg235
F12900.0
sg236
S'Cert_271036-276811_13TeV_PromptReco_Collisions16_JSON.txt'
p255
sbssS'DataDatasets'
p256
(dp257
g179
g4
(cDataset
Dataset
p258
g6
Ntp259
Rp260
(dp261
g25
I2015
sg10
g178
sg12
g179
sg14
I01
sg28
g181
sbsS'/SingleMuon/Run2016B-PromptReco-v2/MINIAOD'
p262
g4
(g258
g6
Ntp263
Rp264
(dp265
g25
I2016
sg10
S'SingleMuon.Run2016B-PromptReco-v2.MINIAOD.files'
p266
sg12
g262
sg14
I01
sg28
S'SingleMuon.Run2016B-PromptReco-v2.MINIAOD'
p267
sbsg187
g4
(g258
g6
Ntp268
Rp269
(dp270
g25
I2015
sg10
g186
sg12
g187
sg14
I01
sg28
g189
sbsS'/SingleMuon/Run2016E-PromptReco-v2/MINIAOD'
p271
g4
(g258
g6
Ntp272
Rp273
(dp274
g25
I2016
sg10
S'SingleMuon.Run2016E-PromptReco-v2.MINIAOD.files'
p275
sg12
g271
sg14
I01
sg28
S'SingleMuon.Run2016E-PromptReco-v2.MINIAOD'
p276
sbsg154
g4
(g258
g6
Ntp277
Rp278
(dp279
g25
I2015
sg10
g153
sg12
g154
sg14
I01
sg28
g156
sbsg121
g4
(g258
g6
Ntp280
Rp281
(dp282
g25
I2015
sg10
g120
sg12
g121
sg14
I01
sg28
g127
sbsg162
g4
(g258
g6
Ntp283
Rp284
(dp285
g25
I2015
sg10
g161
sg12
g162
sg14
I01
sg28
g168
sbsS'/SingleMuon/Run2016C-PromptReco-v2/MINIAOD'
p286
g4
(g258
g6
Ntp287
Rp288
(dp289
g25
I2016
sg10
S'SingleMuon.Run2016C-PromptReco-v2.MINIAOD.files'
p290
sg12
g286
sg14
I01
sg28
S'SingleMuon.Run2016C-PromptReco-v2.MINIAOD'
p291
sbsS'/SingleMuon/Run2016D-PromptReco-v2/MINIAOD'
p292
g4
(g258
g6
Ntp293
Rp294
(dp295
g25
I2016
sg10
S'SingleMuon.Run2016D-PromptReco-v2.MINIAOD.files'
p296
sg12
g292
sg14
I01
sg28
S'SingleMuon.Run2016D-PromptReco-v2.MINIAOD'
p297
sbss.