(dp0
S'MCNtuples'
p1
(dp2
sS'DataNtuples'
p3
(dp4
S'SingleMuon.Run2016D-PromptReco-v2.MINIAOD.2016_Prompt_16900'
p5
ccopy_reg
_reconstructor
p6
(cNtupleProcessing.python.Dataset
Ntuple
p7
c__builtin__
object
p8
Ntp9
Rp10
(dp11
S'test_file'
p12
S'SingleMuon.Run2016D-PromptReco-v2.MINIAOD.files'
p13
sS'name'
p14
S'/SingleMuon/Run2016D-PromptReco-v2/MINIAOD'
p15
sS'isData'
p16
I01
sS'timestamp'
p17
S''
p18
sS'storage'
p19
S'EOS'
p20
sS'rootpath'
p21
S'/store/user/vkhriste/higgs_ntuples/data'
p22
sS'isSignal'
p23
NsS'globaltag'
p24
S'80X_dataRun2_Prompt_v9'
p25
sS'json'
p26
S'Cert_271036-277148_13TeV_PromptReco_Collisions16_JSON.txt'
p27
sS'year'
p28
I2016
sS'cmssw'
p29
S'80X'
p30
sS'label'
p31
S'SingleMuon.Run2016D-PromptReco-v2.MINIAOD'
p32
sS'initial_cmssw'
p33
NsbsS'SingleMuon.Run2016B-PromptReco-v2.MINIAOD.2016_Prompt_7648'
p34
g6
(g7
g8
Ntp35
Rp36
(dp37
g12
S'SingleMuon.Run2016B-PromptReco-v2.MINIAOD.files'
p38
sg14
S'/SingleMuon/Run2016B-PromptReco-v2/MINIAOD'
p39
sg16
I01
sg17
g18
sg19
S'EOS'
p40
sg23
Nsg21
S'/store/user/vkhriste/higgs_ntuples/data'
p41
sg31
S'SingleMuon.Run2016B-PromptReco-v2.MINIAOD'
p42
sg24
S'80X_dataRun2_Prompt_v9'
p43
sg26
S'Cert_271036-276097_13TeV_PromptReco_Collisions16_JSON_NoL1T_v2.txt'
p44
sg28
I2016
sg29
S'80X'
p45
sg33
NsbsS'SingleMuon.Run2016E-PromptReco-v2.MINIAOD.2016_Prompt_7648'
p46
g6
(g7
g8
Ntp47
Rp48
(dp49
g12
S'SingleMuon.Run2016E-PromptReco-v2.MINIAOD.files'
p50
sg14
S'/SingleMuon/Run2016E-PromptReco-v2/MINIAOD'
p51
sg16
I01
sg17
g18
sg19
g40
sg23
Nsg21
S'/store/user/vkhriste/higgs_ntuples/data'
p52
sg31
S'SingleMuon.Run2016E-PromptReco-v2.MINIAOD'
p53
sg24
g43
sg26
g44
sg28
I2016
sg29
g45
sg33
NsbsS'SingleMuon.Run2016C-PromptReco-v2.MINIAOD.2016_Prompt_7648'
p54
g6
(g7
g8
Ntp55
Rp56
(dp57
g12
S'SingleMuon.Run2016C-PromptReco-v2.MINIAOD.files'
p58
sg14
S'/SingleMuon/Run2016C-PromptReco-v2/MINIAOD'
p59
sg16
I01
sg17
g18
sg19
g40
sg23
Nsg21
S'/store/user/vkhriste/higgs_ntuples/data'
p60
sg31
S'SingleMuon.Run2016C-PromptReco-v2.MINIAOD'
p61
sg24
g43
sg26
g44
sg28
I2016
sg29
g45
sg33
NsbsS'SingleMuon.Run2016B-PromptReco-v2.MINIAOD.2016_Prompt_16900'
p62
g6
(g7
g8
Ntp63
Rp64
(dp65
g12
g38
sg14
g39
sg16
I01
sg17
g18
sg19
g20
sg21
S'/store/user/vkhriste/higgs_ntuples/data'
p66
sg23
Nsg24
g25
sg26
g27
sg28
I2016
sg29
g30
sg31
g42
sg33
NsbsS'SingleMuon.Run2016D-PromptReco-v2.MINIAOD.2016_Prompt_7648'
p67
g6
(g7
g8
Ntp68
Rp69
(dp70
g12
g13
sg14
g15
sg16
I01
sg17
g18
sg19
g40
sg23
Nsg21
S'/store/user/vkhriste/higgs_ntuples/data'
p71
sg31
g32
sg24
g43
sg26
g44
sg28
I2016
sg29
g45
sg33
NsbsS'SingleMuon.Run2016E-PromptReco-v2.MINIAOD.2016_Prompt_16900'
p72
g6
(g7
g8
Ntp73
Rp74
(dp75
g12
g50
sg14
g51
sg16
I01
sg17
g18
sg19
g20
sg21
S'/store/user/vkhriste/higgs_ntuples/data'
p76
sg23
Nsg24
g25
sg26
g27
sg28
I2016
sg29
g30
sg31
g53
sg33
NsbsS'SingleMuon.Run2016C-PromptReco-v2.MINIAOD.2016_Prompt_16900'
p77
g6
(g7
g8
Ntp78
Rp79
(dp80
g12
g58
sg14
g59
sg16
I01
sg17
g18
sg19
g20
sg21
S'/store/user/vkhriste/higgs_ntuples/data'
p81
sg23
Nsg24
g25
sg26
g27
sg28
I2016
sg29
g30
sg31
g61
sg33
NsbssS'MCDatasets'
p82
(dp83
S'/VBF_HToMuMu_M125_13TeV_powheg_pythia8/RunIIFall15MiniAODv2-PU25nsData2015v1_76X_mcRun2_asymptotic_v12-v1/MINIAODSIM'
p84
g6
(cDataset
MCDataset
p85
g8
Ntp86
Rp87
(dp88
g12
S'VBF_HToMuMu_M125_13TeV_powheg_pythia8.RunIIFall15MiniAODv2-PU25nsData2015v1_76X_mcRun2_asymptotic_v12-v1.MINIAODSIM.files'
p89
sg14
g84
sg16
I00
sg23
I01
sg31
S'VBF_HToMuMu_M125_13TeV_powheg_pythia8.RunIIFall15MiniAODv2-PU25nsData2015v1_76X_mcRun2_asymptotic_v12-v1.MINIAODSIM'
p90
sg28
I2015
sg33
S'76X'
p91
sbsS'/GluGlu_HToMuMu_M125_13TeV_powheg_pythia8/RunIISpring15MiniAODv2-74X_mcRun2_asymptotic_v2-v1/MINIAODSIM'
p92
g6
(g85
g8
Ntp93
Rp94
(dp95
g12
S'GluGlu_HToMuMu_M125_13TeV_powheg_pythia8.RunIISpring15MiniAODv2-74X_mcRun2_asymptotic_v2-v1.MINIAODSIM.files'
p96
sg14
g92
sg16
I00
sg23
I01
sg31
S'GluGlu_HToMuMu_M125_13TeV_powheg_pythia8.RunIISpring15MiniAODv2-74X_mcRun2_asymptotic_v2-v1.MINIAODSIM'
p97
sg28
I2015
sg33
S'74X'
p98
sbsS'/VBF_HToMuMu_M125_13TeV_powheg_pythia8/RunIISpring15MiniAODv2-74X_mcRun2_asymptotic_v2-v1/MINIAODSIM'
p99
g6
(g85
g8
Ntp100
Rp101
(dp102
g12
S'VBF_HToMuMu_M125_13TeV_powheg_pythia8.RunIISpring15MiniAODv2-74X_mcRun2_asymptotic_v2-v1.MINIAODSIM.files'
p103
sg14
g99
sg16
I00
sg23
I01
sg31
S'VBF_HToMuMu_M125_13TeV_powheg_pythia8.RunIISpring15MiniAODv2-74X_mcRun2_asymptotic_v2-v1.MINIAODSIM'
p104
sg28
I2015
sg33
g98
sbsS'/DYJetsToLL_M-50_TuneCUETP8M1_13TeV-amcatnloFXFX-pythia8/RunIISpring15MiniAODv2-74X_mcRun2_asymptotic_v2-v1/MINIAODSIM'
p105
g6
(g85
g8
Ntp106
Rp107
(dp108
g12
S'DYJetsToLL_M-50_TuneCUETP8M1_13TeV-amcatnloFXFX-pythia8.RunIISpring15MiniAODv2-74X_mcRun2_asymptotic_v2-v1.MINIAODSIM.files'
p109
sg14
g105
sg16
I00
sg23
I00
sg31
S'DYJetsToLL_M-50_TuneCUETP8M1_13TeV-amcatnloFXFX-pythia8.RunIISpring15MiniAODv2-74X_mcRun2_asymptotic_v2-v1.MINIAODSIM'
p110
sg28
I2015
sg33
g98
sbsS'/TTJets_TuneCUETP8M1_13TeV-amcatnloFXFX-pythia8/RunIIFall15MiniAODv2-PU25nsData2015v1_76X_mcRun2_asymptotic_v12-v1/MINIAODSIM'
p111
g6
(g85
g8
Ntp112
Rp113
(dp114
g12
S'TTJets_TuneCUETP8M1_13TeV-amcatnloFXFX-pythia8.RunIIFall15MiniAODv2-PU25nsData2015v1_76X_mcRun2_asymptotic_v12-v1.MINIAODSIM.files'
p115
sg14
g111
sg16
I00
sg23
I00
sg31
S'TTJets_TuneCUETP8M1_13TeV-amcatnloFXFX-pythia8.RunIIFall15MiniAODv2-PU25nsData2015v1_76X_mcRun2_asymptotic_v12-v1.MINIAODSIM'
p116
sg28
I2015
sg33
g91
sbsS'/DYJetsToLL_M-50_TuneCUETP8M1_13TeV-amcatnloFXFX-pythia8/RunIIFall15MiniAODv2-PU25nsData2015v1_76X_mcRun2_asymptotic_v12-v1/MINIAODSIM'
p117
g6
(g85
g8
Ntp118
Rp119
(dp120
g12
S'DYJetsToLL_M-50_TuneCUETP8M1_13TeV-amcatnloFXFX-pythia8.RunIIFall15MiniAODv2-PU25nsData2015v1_76X_mcRun2_asymptotic_v12-v1.MINIAODSIM.files'
p121
sg14
g117
sg16
I00
sg23
I01
sg31
S'DYJetsToLL_M-50_TuneCUETP8M1_13TeV-amcatnloFXFX-pythia8.RunIIFall15MiniAODv2-PU25nsData2015v1_76X_mcRun2_asymptotic_v12-v1.MINIAODSIM'
p122
sg28
I2015
sg33
g91
sbsS'/TTJets_TuneCUETP8M1_13TeV-amcatnloFXFX-pythia8/RunIISpring15MiniAODv2-74X_mcRun2_asymptotic_v2-v3/MINIAODSIM'
p123
g6
(g85
g8
Ntp124
Rp125
(dp126
g12
S'TTJets_TuneCUETP8M1_13TeV-amcatnloFXFX-pythia8.RunIISpring15MiniAODv2-74X_mcRun2_asymptotic_v2-v3.MINIAODSIM.files'
p127
sg14
g123
sg16
I00
sg23
I00
sg31
S'TTJets_TuneCUETP8M1_13TeV-amcatnloFXFX-pythia8.RunIISpring15MiniAODv2-74X_mcRun2_asymptotic_v2-v3.MINIAODSIM'
p128
sg28
I2015
sg33
g98
sbsS'/GluGlu_HToMuMu_M125_13TeV_powheg_pythia8/RunIIFall15MiniAODv2-PU25nsData2015v1_76X_mcRun2_asymptotic_v12-v1/MINIAODSIM'
p129
g6
(g85
g8
Ntp130
Rp131
(dp132
g12
S'GluGlu_HToMuMu_M125_13TeV_powheg_pythia8.RunIIFall15MiniAODv2-PU25nsData2015v1_76X_mcRun2_asymptotic_v12-v1.MINIAODSIM.files'
p133
sg14
g129
sg16
I00
sg23
I01
sg31
S'GluGlu_HToMuMu_M125_13TeV_powheg_pythia8.RunIIFall15MiniAODv2-PU25nsData2015v1_76X_mcRun2_asymptotic_v12-v1.MINIAODSIM'
p134
sg28
I2015
sg33
g91
sbssS'jsonfiles'
p135
(dp136
S'2016_Prompt_7648'
p137
g6
(cDataset
JsonFile
p138
g8
Ntp139
Rp140
(dp141
S'url'
p142
NsS'intlumi'
p143
F7648.0
sS'filename'
p144
g44
sbsS'2015_ReReco'
p145
g6
(g138
g8
Ntp146
Rp147
(dp148
g142
Nsg143
F2318.0
sg144
S'Cert_13TeV_16Dec2015ReReco_Collisions15_25ns_JSON_v2.txt'
p149
sbsS'2016_Prompt_16900'
p150
g6
(g138
g8
Ntp151
Rp152
(dp153
g142
Nsg143
F16900.0
sg144
g27
sbsS'2015_Prompt'
p154
g6
(g138
g8
Ntp155
Rp156
(dp157
g142
Nsg143
F2169.0
sg144
S'Cert_246908-260627_13TeV_PromptReco_Collisions15_25ns_JSON_v2.txt'
p158
sbsS'2016_Prompt_12900'
p159
g6
(g138
g8
Ntp160
Rp161
(dp162
g142
Nsg143
F12900.0
sg144
S'Cert_271036-276811_13TeV_PromptReco_Collisions16_JSON.txt'
p163
sbssS'DataDatasets'
p164
(dp165
S'/SingleMuon/Run2015C_25ns-05Oct2015-v1/MINIAOD'
p166
g6
(cDataset
Dataset
p167
g8
Ntp168
Rp169
(dp170
g28
I2015
sg12
S'SingleMuon.Run2015C_25ns-05Oct2015-v1.MINIAOD.files'
p171
sg14
g166
sg16
I01
sg31
S'SingleMuon.Run2015C_25ns-05Oct2015-v1.MINIAOD'
p172
sbsS'SingleMuon/Run2015D-PromptReco-v4/MINIAOD'
p173
g6
(g167
g8
Ntp174
Rp175
(dp176
g28
I2015
sg12
S'ingleMuon.Run2015D-PromptReco-v4.MINIAOD.files'
p177
sg14
g173
sg16
I01
sg31
S'ingleMuon.Run2015D-PromptReco-v4.MINIAOD'
p178
sbsg39
g6
(g167
g8
Ntp179
Rp180
(dp181
g28
I2016
sg12
g38
sg14
g39
sg16
I01
sg31
g42
sbsS'/SingleMuon/Run2015C_25ns-16Dec2015-v1/MINIAOD'
p182
g6
(g167
g8
Ntp183
Rp184
(dp185
g28
I2015
sg12
S'SingleMuon.Run2015C_25ns-16Dec2015-v1.MINIAOD.files'
p186
sg14
g182
sg16
I01
sg31
S'SingleMuon.Run2015C_25ns-16Dec2015-v1.MINIAOD'
p187
sbsg51
g6
(g167
g8
Ntp188
Rp189
(dp190
g28
I2016
sg12
g50
sg14
g51
sg16
I01
sg31
g53
sbsS'/SingleMuon/Run2015D-05Oct2015-v1/MINIAOD'
p191
g6
(g167
g8
Ntp192
Rp193
(dp194
g28
I2015
sg12
S'SingleMuon.Run2015D-05Oct2015-v1.MINIAOD.files'
p195
sg14
g191
sg16
I01
sg31
S'SingleMuon.Run2015D-05Oct2015-v1.MINIAOD'
p196
sbsS'/SingleMuon/Run2015D-16Dec2015-v1/MINIAOD'
p197
g6
(g167
g8
Ntp198
Rp199
(dp200
g28
I2015
sg12
S'SingleMuon.Run2015D-16Dec2015-v1.MINIAOD.files'
p201
sg14
g197
sg16
I01
sg31
S'SingleMuon.Run2015D-16Dec2015-v1.MINIAOD'
p202
sbsg59
g6
(g167
g8
Ntp203
Rp204
(dp205
g28
I2016
sg12
g58
sg14
g59
sg16
I01
sg31
g61
sbsg15
g6
(g167
g8
Ntp206
Rp207
(dp208
g28
I2016
sg12
g13
sg14
g15
sg16
I01
sg31
g32
sbss.