(dp0
S'pileups'
p1
(dp2
S'pileup_Cert_13TeV_16Dec2015ReReco_Collisions15_25ns_JSON_v2_72'
p3
ccopy_reg
_reconstructor
p4
(cDataset
PileUp
p5
c__builtin__
object
p6
Ntp7
Rp8
(dp9
S'cross_section'
p10
S'72'
p11
sS'datajson'
p12
S'Cert_13TeV_16Dec2015ReReco_Collisions15_25ns_JSON_v2.txt'
p13
sbsS'pileup_Cert_271036-276811_13TeV_PromptReco_Collisions16_JSON_71p3'
p14
g4
(g5
g6
Ntp15
Rp16
(dp17
g10
S'71p3'
p18
sg12
S'Cert_271036-276811_13TeV_PromptReco_Collisions16_JSON.txt'
p19
sbsS'pileup_Cert_271036-277148_13TeV_PromptReco_Collisions16_JSON_71'
p20
g4
(g5
g6
Ntp21
Rp22
(dp23
g10
S'71'
p24
sg12
S'Cert_271036-277148_13TeV_PromptReco_Collisions16_JSON.txt'
p25
sbsS'pileup_Cert_271036-277148_13TeV_PromptReco_Collisions16_JSON_70'
p26
g4
(g5
g6
Ntp27
Rp28
(dp29
g10
S'70'
p30
sg12
g25
sbsS'pileup_Cert_271036-277148_13TeV_PromptReco_Collisions16_JSON_72'
p31
g4
(g5
g6
Ntp32
Rp33
(dp34
g10
g11
sg12
g25
sbsS'pileup_Cert_13TeV_16Dec2015ReReco_Collisions15_25ns_JSON_v2_68'
p35
g4
(g5
g6
Ntp36
Rp37
(dp38
g10
S'68'
p39
sg12
g13
sbsS'pileup_Cert_13TeV_16Dec2015ReReco_Collisions15_25ns_JSON_v2_69'
p40
g4
(g5
g6
Ntp41
Rp42
(dp43
g10
S'69'
p44
sg12
g13
sbsS'pileup_Cert_271036-276811_13TeV_PromptReco_Collisions16_JSON_71'
p45
g4
(g5
g6
Ntp46
Rp47
(dp48
g10
g24
sg12
g19
sbsS'pileup_Cert_271036-276811_13TeV_PromptReco_Collisions16_JSON_70'
p49
g4
(g5
g6
Ntp50
Rp51
(dp52
g10
g30
sg12
g19
sbsS'pileup_Cert_271036-276811_13TeV_PromptReco_Collisions16_JSON_72'
p53
g4
(g5
g6
Ntp54
Rp55
(dp56
g10
g11
sg12
g19
sbsS'pileup_Cert_271036-276097_13TeV_PromptReco_Collisions16_JSON_NoL1T_v2_69'
p57
g4
(g5
g6
Ntp58
Rp59
(dp60
g10
g44
sg12
S'Cert_271036-276097_13TeV_PromptReco_Collisions16_JSON_NoL1T_v2.txt'
p61
sbsS'pileup_Cert_271036-276097_13TeV_PromptReco_Collisions16_JSON_NoL1T_v2_68'
p62
g4
(g5
g6
Ntp63
Rp64
(dp65
g10
g39
sg12
g61
sbsS'pileup_Cert_246908-260627_13TeV_PromptReco_Collisions15_25ns_JSON_v2_70'
p66
g4
(g5
g6
Ntp67
Rp68
(dp69
g10
g30
sg12
S'Cert_246908-260627_13TeV_PromptReco_Collisions15_25ns_JSON_v2.txt'
p70
sbsS'pileup_Cert_246908-260627_13TeV_PromptReco_Collisions15_25ns_JSON_v2_71'
p71
g4
(g5
g6
Ntp72
Rp73
(dp74
g10
g24
sg12
g70
sbsS'pileup_Cert_246908-260627_13TeV_PromptReco_Collisions15_25ns_JSON_v2_72'
p75
g4
(g5
g6
Ntp76
Rp77
(dp78
g10
g11
sg12
g70
sbsS'pileup_Cert_246908-260627_13TeV_PromptReco_Collisions15_25ns_JSON_v2_71p3'
p79
g4
(g5
g6
Ntp80
Rp81
(dp82
g10
g18
sg12
g70
sbsS'pileup_Cert_13TeV_16Dec2015ReReco_Collisions15_25ns_JSON_v2_71p3'
p83
g4
(g5
g6
Ntp84
Rp85
(dp86
g10
g18
sg12
g13
sbsS'pileup_Cert_271036-276097_13TeV_PromptReco_Collisions16_JSON_NoL1T_v2_71p3'
p87
g4
(g5
g6
Ntp88
Rp89
(dp90
g10
g18
sg12
g61
sbsS'pileup_Cert_271036-277148_13TeV_PromptReco_Collisions16_JSON_68'
p91
g4
(g5
g6
Ntp92
Rp93
(dp94
g10
g39
sg12
g25
sbsS'pileup_Cert_271036-277148_13TeV_PromptReco_Collisions16_JSON_69'
p95
g4
(g5
g6
Ntp96
Rp97
(dp98
g10
g44
sg12
g25
sbsS'pileup_Cert_271036-276097_13TeV_PromptReco_Collisions16_JSON_NoL1T_v2_70'
p99
g4
(g5
g6
Ntp100
Rp101
(dp102
g10
g30
sg12
g61
sbsS'pileup_Cert_271036-276097_13TeV_PromptReco_Collisions16_JSON_NoL1T_v2_71'
p103
g4
(g5
g6
Ntp104
Rp105
(dp106
g10
g24
sg12
g61
sbsS'pileup_Cert_271036-276097_13TeV_PromptReco_Collisions16_JSON_NoL1T_v2_72'
p107
g4
(g5
g6
Ntp108
Rp109
(dp110
g10
g11
sg12
g61
sbsS'pileup_Cert_13TeV_16Dec2015ReReco_Collisions15_25ns_JSON_v2_71'
p111
g4
(g5
g6
Ntp112
Rp113
(dp114
g10
g24
sg12
g13
sbsS'pileup_Cert_13TeV_16Dec2015ReReco_Collisions15_25ns_JSON_v2_70'
p115
g4
(g5
g6
Ntp116
Rp117
(dp118
g10
g30
sg12
g13
sbsS'pileup_Cert_271036-276811_13TeV_PromptReco_Collisions16_JSON_68'
p119
g4
(g5
g6
Ntp120
Rp121
(dp122
g10
g39
sg12
g19
sbsS'pileup_Cert_271036-276811_13TeV_PromptReco_Collisions16_JSON_69'
p123
g4
(g5
g6
Ntp124
Rp125
(dp126
g10
g44
sg12
g19
sbsS'pileup_Cert_246908-260627_13TeV_PromptReco_Collisions15_25ns_JSON_v2_69'
p127
g4
(g5
g6
Ntp128
Rp129
(dp130
g10
g44
sg12
g70
sbsS'pileup_Cert_246908-260627_13TeV_PromptReco_Collisions15_25ns_JSON_v2_68'
p131
g4
(g5
g6
Ntp132
Rp133
(dp134
g10
g39
sg12
g70
sbsS'pileup_Cert_271036-277148_13TeV_PromptReco_Collisions16_JSON_71p3'
p135
g4
(g5
g6
Ntp136
Rp137
(dp138
g10
g18
sg12
g25
sbssS'MCNtuples'
p139
(dp140
S'GluGlu_HToMuMu_M125_13TeV_powheg_pythia8.74X'
p141
g4
(cNtupleProcessing.python.Dataset
Ntuple
p142
g6
Ntp143
Rp144
(dp145
S'test_file'
p146
S'GluGlu_HToMuMu_M125_13TeV_powheg_pythia8.RunIISpring15MiniAODv2-74X_mcRun2_asymptotic_v2-v1.MINIAODSIM.files'
p147
sS'name'
p148
S'/GluGlu_HToMuMu_M125_13TeV_powheg_pythia8/RunIISpring15MiniAODv2-74X_mcRun2_asymptotic_v2-v1/MINIAODSIM'
p149
sS'isData'
p150
I00
sS'timestamp'
p151
S''
p152
sS'storage'
p153
S'EOS'
p154
sS'rootpath'
p155
S'/store/user/vkhriste/higgs_ntuples/mc'
p156
sS'isSignal'
p157
I01
sS'globaltag'
p158
S'74X_mcRun2_asymptotic_v2'
p159
sS'json'
p160
NsS'year'
p161
I2015
sS'cmssw'
p162
S'74X'
p163
sS'label'
p164
S'GluGlu_HToMuMu_M125_13TeV_powheg_pythia8.RunIISpring15MiniAODv2-74X_mcRun2_asymptotic_v2-v1.MINIAODSIM'
p165
sS'initial_cmssw'
p166
g163
sbsS'VBF_HToMuMu_M125_13TeV_powheg_pythia8.76X'
p167
g4
(g142
g6
Ntp168
Rp169
(dp170
g146
S'VBF_HToMuMu_M125_13TeV_powheg_pythia8.RunIIFall15MiniAODv2-PU25nsData2015v1_76X_mcRun2_asymptotic_v12-v1.MINIAODSIM.files'
p171
sg148
S'/VBF_HToMuMu_M125_13TeV_powheg_pythia8/RunIIFall15MiniAODv2-PU25nsData2015v1_76X_mcRun2_asymptotic_v12-v1/MINIAODSIM'
p172
sg150
I00
sg151
Nsg153
S'EOS'
p173
sg155
S'/store/user/vkhriste/higgs_ntuples/mc'
p174
sg157
I01
sg158
S'76X_mcRun2_asymptotic_v12'
p175
sg160
Nsg161
I2015
sg162
S'76X'
p176
sg164
S'VBF_HToMuMu_M125_13TeV_powheg_pythia8.RunIIFall15MiniAODv2-PU25nsData2015v1_76X_mcRun2_asymptotic_v12-v1.MINIAODSIM'
p177
sg166
g176
sbsS'DYJetsToLL_M-50_TuneCUETP8M1_13TeV-amcatnloFXFX-pythia8.76X'
p178
g4
(g142
g6
Ntp179
Rp180
(dp181
g146
S'DYJetsToLL_M-50_TuneCUETP8M1_13TeV-amcatnloFXFX-pythia8.RunIIFall15MiniAODv2-PU25nsData2015v1_76X_mcRun2_asymptotic_v12-v1.MINIAODSIM.files'
p182
sg148
S'/DYJetsToLL_M-50_TuneCUETP8M1_13TeV-amcatnloFXFX-pythia8/RunIIFall15MiniAODv2-PU25nsData2015v1_76X_mcRun2_asymptotic_v12-v1/MINIAODSIM'
p183
sg150
I00
sg151
Nsg153
g173
sg155
S'/store/user/vkhriste/higgs_ntuples/mc'
p184
sg157
I01
sg158
g175
sg160
Nsg161
I2015
sg162
g176
sg164
S'DYJetsToLL_M-50_TuneCUETP8M1_13TeV-amcatnloFXFX-pythia8.RunIIFall15MiniAODv2-PU25nsData2015v1_76X_mcRun2_asymptotic_v12-v1.MINIAODSIM'
p185
sg166
g176
sbsS'TTJets_TuneCUETP8M1_13TeV-amcatnloFXFX-pythia8.74X'
p186
g4
(g142
g6
Ntp187
Rp188
(dp189
g146
S'TTJets_TuneCUETP8M1_13TeV-amcatnloFXFX-pythia8.RunIISpring15MiniAODv2-74X_mcRun2_asymptotic_v2-v3.MINIAODSIM.files'
p190
sg148
S'/TTJets_TuneCUETP8M1_13TeV-amcatnloFXFX-pythia8/RunIISpring15MiniAODv2-74X_mcRun2_asymptotic_v2-v3/MINIAODSIM'
p191
sg150
I00
sg151
g152
sg153
g154
sg155
S'/store/user/vkhriste/higgs_ntuples/mc'
p192
sg157
I00
sg158
g159
sg160
Nsg161
I2015
sg162
g163
sg164
S'TTJets_TuneCUETP8M1_13TeV-amcatnloFXFX-pythia8.RunIISpring15MiniAODv2-74X_mcRun2_asymptotic_v2-v3.MINIAODSIM'
p193
sg166
g163
sbsS'GluGlu_HToMuMu_M125_13TeV_powheg_pythia8.76X'
p194
g4
(g142
g6
Ntp195
Rp196
(dp197
g146
S'GluGlu_HToMuMu_M125_13TeV_powheg_pythia8.RunIIFall15MiniAODv2-PU25nsData2015v1_76X_mcRun2_asymptotic_v12-v1.MINIAODSIM.files'
p198
sg148
S'/GluGlu_HToMuMu_M125_13TeV_powheg_pythia8/RunIIFall15MiniAODv2-PU25nsData2015v1_76X_mcRun2_asymptotic_v12-v1/MINIAODSIM'
p199
sg150
I00
sg151
Nsg153
g173
sg155
S'/store/user/vkhriste/higgs_ntuples/mc'
p200
sg157
I01
sg158
g175
sg160
Nsg161
I2015
sg162
g176
sg164
S'GluGlu_HToMuMu_M125_13TeV_powheg_pythia8.RunIIFall15MiniAODv2-PU25nsData2015v1_76X_mcRun2_asymptotic_v12-v1.MINIAODSIM'
p201
sg166
g176
sbsS'TTJets_TuneCUETP8M1_13TeV-amcatnloFXFX-pythia8.76X'
p202
g4
(g142
g6
Ntp203
Rp204
(dp205
g146
S'TTJets_TuneCUETP8M1_13TeV-amcatnloFXFX-pythia8.RunIIFall15MiniAODv2-PU25nsData2015v1_76X_mcRun2_asymptotic_v12-v1.MINIAODSIM.files'
p206
sg148
S'/TTJets_TuneCUETP8M1_13TeV-amcatnloFXFX-pythia8/RunIIFall15MiniAODv2-PU25nsData2015v1_76X_mcRun2_asymptotic_v12-v1/MINIAODSIM'
p207
sg150
I00
sg151
Nsg153
g173
sg155
S'/store/user/vkhriste/higgs_ntuples/mc'
p208
sg157
I00
sg158
g175
sg160
Nsg161
I2015
sg162
g176
sg164
S'TTJets_TuneCUETP8M1_13TeV-amcatnloFXFX-pythia8.RunIIFall15MiniAODv2-PU25nsData2015v1_76X_mcRun2_asymptotic_v12-v1.MINIAODSIM'
p209
sg166
g176
sbsS'DYJetsToLL_M-50_TuneCUETP8M1_13TeV-amcatnloFXFX-pythia8.74X'
p210
g4
(g142
g6
Ntp211
Rp212
(dp213
g146
S'DYJetsToLL_M-50_TuneCUETP8M1_13TeV-amcatnloFXFX-pythia8.RunIISpring15MiniAODv2-74X_mcRun2_asymptotic_v2-v1.MINIAODSIM.files'
p214
sg148
S'/DYJetsToLL_M-50_TuneCUETP8M1_13TeV-amcatnloFXFX-pythia8/RunIISpring15MiniAODv2-74X_mcRun2_asymptotic_v2-v1/MINIAODSIM'
p215
sg150
I00
sg151
g152
sg153
g154
sg155
S'/store/user/vkhriste/higgs_ntuples/mc'
p216
sg157
I00
sg158
g159
sg160
Nsg161
I2015
sg162
g163
sg164
S'DYJetsToLL_M-50_TuneCUETP8M1_13TeV-amcatnloFXFX-pythia8.RunIISpring15MiniAODv2-74X_mcRun2_asymptotic_v2-v1.MINIAODSIM'
p217
sg166
g163
sbsS'VBF_HToMuMu_M125_13TeV_powheg_pythia8.74X'
p218
g4
(g142
g6
Ntp219
Rp220
(dp221
g146
S'VBF_HToMuMu_M125_13TeV_powheg_pythia8.RunIISpring15MiniAODv2-74X_mcRun2_asymptotic_v2-v1.MINIAODSIM.files'
p222
sg148
S'/VBF_HToMuMu_M125_13TeV_powheg_pythia8/RunIISpring15MiniAODv2-74X_mcRun2_asymptotic_v2-v1/MINIAODSIM'
p223
sg150
I00
sg151
g152
sg153
g154
sg155
S'/store/user/vkhriste/higgs_ntuples/mc'
p224
sg157
I01
sg158
g159
sg160
Nsg161
I2015
sg162
g163
sg164
S'VBF_HToMuMu_M125_13TeV_powheg_pythia8.RunIISpring15MiniAODv2-74X_mcRun2_asymptotic_v2-v1.MINIAODSIM'
p225
sg166
g163
sbssS'DataDatasets'
p226
(dp227
S'/SingleMuon/Run2015C_25ns-05Oct2015-v1/MINIAOD'
p228
g4
(cDataset
Dataset
p229
g6
Ntp230
Rp231
(dp232
g161
I2015
sg146
S'SingleMuon.Run2015C_25ns-05Oct2015-v1.MINIAOD.files'
p233
sg148
g228
sg150
I01
sg164
S'SingleMuon.Run2015C_25ns-05Oct2015-v1.MINIAOD'
p234
sbsS'/SingleMuon/Run2015D-05Oct2015-v1/MINIAOD'
p235
g4
(g229
g6
Ntp236
Rp237
(dp238
g161
I2015
sg146
S'SingleMuon.Run2015D-05Oct2015-v1.MINIAOD.files'
p239
sg148
g235
sg150
I01
sg164
S'SingleMuon.Run2015D-05Oct2015-v1.MINIAOD'
p240
sbsS'/SingleMuon/Run2016B-PromptReco-v2/MINIAOD'
p241
g4
(g229
g6
Ntp242
Rp243
(dp244
g161
I2016
sg146
S'SingleMuon.Run2016B-PromptReco-v2.MINIAOD.files'
p245
sg148
g241
sg150
I01
sg164
S'SingleMuon.Run2016B-PromptReco-v2.MINIAOD'
p246
sbsS'/SingleMuon/Run2015D-16Dec2015-v1/MINIAOD'
p247
g4
(g229
g6
Ntp248
Rp249
(dp250
g161
I2015
sg146
S'SingleMuon.Run2015D-16Dec2015-v1.MINIAOD.files'
p251
sg148
g247
sg150
I01
sg164
S'SingleMuon.Run2015D-16Dec2015-v1.MINIAOD'
p252
sbsS'/SingleMuon/Run2015C_25ns-16Dec2015-v1/MINIAOD'
p253
g4
(g229
g6
Ntp254
Rp255
(dp256
g161
I2015
sg146
S'SingleMuon.Run2015C_25ns-16Dec2015-v1.MINIAOD.files'
p257
sg148
g253
sg150
I01
sg164
S'SingleMuon.Run2015C_25ns-16Dec2015-v1.MINIAOD'
p258
sbsS'/SingleMuon/Run2016E-PromptReco-v2/MINIAOD'
p259
g4
(g229
g6
Ntp260
Rp261
(dp262
g161
I2016
sg146
S'SingleMuon.Run2016E-PromptReco-v2.MINIAOD.files'
p263
sg148
g259
sg150
I01
sg164
S'SingleMuon.Run2016E-PromptReco-v2.MINIAOD'
p264
sbsS'/SingleMuon/Run2015D-PromptReco-v4/MINIAOD'
p265
g4
(g229
g6
Ntp266
Rp267
(dp268
g161
I2015
sg146
S'SingleMuon.Run2015D-PromptReco-v4.MINIAOD.files'
p269
sg148
g265
sg150
I01
sg164
S'SingleMuon.Run2015D-PromptReco-v4.MINIAOD'
p270
sbsS'/SingleMuon/Run2016D-PromptReco-v2/MINIAOD'
p271
g4
(g229
g6
Ntp272
Rp273
(dp274
g161
I2016
sg146
S'SingleMuon.Run2016D-PromptReco-v2.MINIAOD.files'
p275
sg148
g271
sg150
I01
sg164
S'SingleMuon.Run2016D-PromptReco-v2.MINIAOD'
p276
sbsS'/SingleMuon/Run2016C-PromptReco-v2/MINIAOD'
p277
g4
(g229
g6
Ntp278
Rp279
(dp280
g161
I2016
sg146
S'SingleMuon.Run2016C-PromptReco-v2.MINIAOD.files'
p281
sg148
g277
sg150
I01
sg164
S'SingleMuon.Run2016C-PromptReco-v2.MINIAOD'
p282
sbssS'MCDatasets'
p283
(dp284
S'/VBF_HToMuMu_M125_13TeV_powheg_pythia8/RunIISpring15MiniAODv2-74X_mcRun2_asymptotic_v2-v1/MINIAODSIM'
p285
g4
(cDataset
MCDataset
p286
g6
Ntp287
Rp288
(dp289
g146
S'VBF_HToMuMu_M125_13TeV_powheg_pythia8.RunIISpring15MiniAODv2-74X_mcRun2_asymptotic_v2-v1.MINIAODSIM.files'
p290
sg148
g285
sg150
I00
sg157
I01
sg164
S'VBF_HToMuMu_M125_13TeV_powheg_pythia8.RunIISpring15MiniAODv2-74X_mcRun2_asymptotic_v2-v1.MINIAODSIM'
p291
sg161
I2015
sg166
S'74X'
p292
sbsS'/DYJetsToLL_M-50_TuneCUETP8M1_13TeV-amcatnloFXFX-pythia8/RunIISpring15MiniAODv2-74X_mcRun2_asymptotic_v2-v1/MINIAODSIM'
p293
g4
(g286
g6
Ntp294
Rp295
(dp296
g146
S'DYJetsToLL_M-50_TuneCUETP8M1_13TeV-amcatnloFXFX-pythia8.RunIISpring15MiniAODv2-74X_mcRun2_asymptotic_v2-v1.MINIAODSIM.files'
p297
sg148
g293
sg150
I00
sg157
I00
sg164
S'DYJetsToLL_M-50_TuneCUETP8M1_13TeV-amcatnloFXFX-pythia8.RunIISpring15MiniAODv2-74X_mcRun2_asymptotic_v2-v1.MINIAODSIM'
p298
sg161
I2015
sg166
g292
sbsS'/TTJets_TuneCUETP8M1_13TeV-amcatnloFXFX-pythia8/RunIIFall15MiniAODv2-PU25nsData2015v1_76X_mcRun2_asymptotic_v12-v1/MINIAODSIM'
p299
g4
(g286
g6
Ntp300
Rp301
(dp302
g146
S'TTJets_TuneCUETP8M1_13TeV-amcatnloFXFX-pythia8.RunIIFall15MiniAODv2-PU25nsData2015v1_76X_mcRun2_asymptotic_v12-v1.MINIAODSIM.files'
p303
sg148
g299
sg150
I00
sg157
I00
sg164
S'TTJets_TuneCUETP8M1_13TeV-amcatnloFXFX-pythia8.RunIIFall15MiniAODv2-PU25nsData2015v1_76X_mcRun2_asymptotic_v12-v1.MINIAODSIM'
p304
sg161
I2015
sg166
S'76X'
p305
sbsS'/VBF_HToMuMu_M125_13TeV_powheg_pythia8/RunIIFall15MiniAODv2-PU25nsData2015v1_76X_mcRun2_asymptotic_v12-v1/MINIAODSIM'
p306
g4
(g286
g6
Ntp307
Rp308
(dp309
g146
S'VBF_HToMuMu_M125_13TeV_powheg_pythia8.RunIIFall15MiniAODv2-PU25nsData2015v1_76X_mcRun2_asymptotic_v12-v1.MINIAODSIM.files'
p310
sg148
g306
sg150
I00
sg157
I01
sg164
S'VBF_HToMuMu_M125_13TeV_powheg_pythia8.RunIIFall15MiniAODv2-PU25nsData2015v1_76X_mcRun2_asymptotic_v12-v1.MINIAODSIM'
p311
sg161
I2015
sg166
g305
sbsS'/GluGlu_HToMuMu_M125_13TeV_powheg_pythia8/RunIIFall15MiniAODv2-PU25nsData2015v1_76X_mcRun2_asymptotic_v12-v1/MINIAODSIM'
p312
g4
(g286
g6
Ntp313
Rp314
(dp315
g146
S'GluGlu_HToMuMu_M125_13TeV_powheg_pythia8.RunIIFall15MiniAODv2-PU25nsData2015v1_76X_mcRun2_asymptotic_v12-v1.MINIAODSIM.files'
p316
sg148
g312
sg150
I00
sg157
I01
sg164
S'GluGlu_HToMuMu_M125_13TeV_powheg_pythia8.RunIIFall15MiniAODv2-PU25nsData2015v1_76X_mcRun2_asymptotic_v12-v1.MINIAODSIM'
p317
sg161
I2015
sg166
g305
sbsS'/DYJetsToLL_M-50_TuneCUETP8M1_13TeV-amcatnloFXFX-pythia8/RunIIFall15MiniAODv2-PU25nsData2015v1_76X_mcRun2_asymptotic_v12-v1/MINIAODSIM'
p318
g4
(g286
g6
Ntp319
Rp320
(dp321
g146
S'DYJetsToLL_M-50_TuneCUETP8M1_13TeV-amcatnloFXFX-pythia8.RunIIFall15MiniAODv2-PU25nsData2015v1_76X_mcRun2_asymptotic_v12-v1.MINIAODSIM.files'
p322
sg148
g318
sg150
I00
sg157
I01
sg164
S'DYJetsToLL_M-50_TuneCUETP8M1_13TeV-amcatnloFXFX-pythia8.RunIIFall15MiniAODv2-PU25nsData2015v1_76X_mcRun2_asymptotic_v12-v1.MINIAODSIM'
p323
sg161
I2015
sg166
g305
sbsS'/TTJets_TuneCUETP8M1_13TeV-amcatnloFXFX-pythia8/RunIISpring15MiniAODv2-74X_mcRun2_asymptotic_v2-v3/MINIAODSIM'
p324
g4
(g286
g6
Ntp325
Rp326
(dp327
g146
S'TTJets_TuneCUETP8M1_13TeV-amcatnloFXFX-pythia8.RunIISpring15MiniAODv2-74X_mcRun2_asymptotic_v2-v3.MINIAODSIM.files'
p328
sg148
g324
sg150
I00
sg157
I00
sg164
S'TTJets_TuneCUETP8M1_13TeV-amcatnloFXFX-pythia8.RunIISpring15MiniAODv2-74X_mcRun2_asymptotic_v2-v3.MINIAODSIM'
p329
sg161
I2015
sg166
g292
sbsS'/GluGlu_HToMuMu_M125_13TeV_powheg_pythia8/RunIISpring15MiniAODv2-74X_mcRun2_asymptotic_v2-v1/MINIAODSIM'
p330
g4
(g286
g6
Ntp331
Rp332
(dp333
g146
S'GluGlu_HToMuMu_M125_13TeV_powheg_pythia8.RunIISpring15MiniAODv2-74X_mcRun2_asymptotic_v2-v1.MINIAODSIM.files'
p334
sg148
g330
sg150
I00
sg157
I01
sg164
S'GluGlu_HToMuMu_M125_13TeV_powheg_pythia8.RunIISpring15MiniAODv2-74X_mcRun2_asymptotic_v2-v1.MINIAODSIM'
p335
sg161
I2015
sg166
g292
sbssS'DataNtuples'
p336
(dp337
S'SingleMuon.Run2016D-PromptReco-v2.MINIAOD.2016_Prompt_16900'
p338
g4
(g142
g6
Ntp339
Rp340
(dp341
g146
S'SingleMuon.Run2016D-PromptReco-v2.MINIAOD.files'
p342
sg148
S'/SingleMuon/Run2016D-PromptReco-v2/MINIAOD'
p343
sg150
I01
sg151
g152
sg153
S'EOS'
p344
sg155
S'/store/user/vkhriste/higgs_ntuples/data'
p345
sg157
Nsg158
S'80X_dataRun2_Prompt_v9'
p346
sg160
S'Cert_271036-277148_13TeV_PromptReco_Collisions16_JSON.txt'
p347
sg161
I2016
sg162
S'80X'
p348
sg164
S'SingleMuon.Run2016D-PromptReco-v2.MINIAOD'
p349
sg166
NsbsS'SingleMuon.Run2016B-PromptReco-v2.MINIAOD.2016_Prompt_7648'
p350
g4
(g142
g6
Ntp351
Rp352
(dp353
g146
S'SingleMuon.Run2016B-PromptReco-v2.MINIAOD.files'
p354
sg148
S'/SingleMuon/Run2016B-PromptReco-v2/MINIAOD'
p355
sg150
I01
sg151
g152
sg153
S'EOS'
p356
sg155
S'/store/user/vkhriste/higgs_ntuples/data'
p357
sg157
Nsg158
S'80X_dataRun2_Prompt_v9'
p358
sg160
S'Cert_271036-276097_13TeV_PromptReco_Collisions16_JSON_NoL1T_v2.txt'
p359
sg161
I2016
sg162
S'80X'
p360
sg164
S'SingleMuon.Run2016B-PromptReco-v2.MINIAOD'
p361
sg166
NsbsS'SingleMuon.Run2015D-05Oct2015-v1.MINIAOD.2015_Prompt'
p362
g4
(g142
g6
Ntp363
Rp364
(dp365
g146
S'SingleMuon.Run2015D-05Oct2015-v1.MINIAOD.files'
p366
sg148
S'/SingleMuon/Run2015D-05Oct2015-v1/MINIAOD'
p367
sg150
I01
sg151
g152
sg153
S'EOS'
p368
sg155
S'/store/user/vkhriste/higgs_ntuples/data'
p369
sg157
Nsg158
S'74X_dataRun2_Prompt_v4'
p370
sg160
S'Cert_246908-260627_13TeV_PromptReco_Collisions15_25ns_JSON_v2.txt'
p371
sg161
I2015
sg162
S'74X'
p372
sg164
S'SingleMuon.Run2015D-05Oct2015-v1.MINIAOD'
p373
sg166
NsbsS'SingleMuon.Run2016E-PromptReco-v2.MINIAOD.2016_Prompt_7648'
p374
g4
(g142
g6
Ntp375
Rp376
(dp377
g146
S'SingleMuon.Run2016E-PromptReco-v2.MINIAOD.files'
p378
sg148
S'/SingleMuon/Run2016E-PromptReco-v2/MINIAOD'
p379
sg150
I01
sg151
g152
sg153
g356
sg155
S'/store/user/vkhriste/higgs_ntuples/data'
p380
sg157
Nsg158
g358
sg160
g359
sg161
I2016
sg162
g360
sg164
S'SingleMuon.Run2016E-PromptReco-v2.MINIAOD'
p381
sg166
NsbsS'SingleMuon.Run2016C-PromptReco-v2.MINIAOD.2016_Prompt_7648'
p382
g4
(g142
g6
Ntp383
Rp384
(dp385
g146
S'SingleMuon.Run2016C-PromptReco-v2.MINIAOD.files'
p386
sg148
S'/SingleMuon/Run2016C-PromptReco-v2/MINIAOD'
p387
sg150
I01
sg151
g152
sg153
g356
sg155
S'/store/user/vkhriste/higgs_ntuples/data'
p388
sg157
Nsg158
g358
sg160
g359
sg161
I2016
sg162
g360
sg164
S'SingleMuon.Run2016C-PromptReco-v2.MINIAOD'
p389
sg166
NsbsS'SingleMuon.Run2016B-PromptReco-v2.MINIAOD.2016_Prompt_16900'
p390
g4
(g142
g6
Ntp391
Rp392
(dp393
g146
g354
sg148
g355
sg150
I01
sg151
g152
sg153
g344
sg155
S'/store/user/vkhriste/higgs_ntuples/data'
p394
sg157
Nsg158
g346
sg160
g347
sg161
I2016
sg162
g348
sg164
g361
sg166
NsbsS'SingleMuon.Run2015D-PromptReco-v4.MINIAOD.2015_Prompt'
p395
g4
(g142
g6
Ntp396
Rp397
(dp398
g146
S'SingleMuon.Run2015D-PromptReco-v4.MINIAOD.files'
p399
sg148
S'/SingleMuon/Run2015D-PromptReco-v4/MINIAOD'
p400
sg150
I01
sg151
g152
sg153
g368
sg155
S'/store/user/vkhriste/higgs_ntuples/data'
p401
sg157
Nsg158
g370
sg160
g371
sg161
I2015
sg162
g372
sg164
S'SingleMuon.Run2015D-PromptReco-v4.MINIAOD'
p402
sg166
NsbsS'SingleMuon.Run2015D-16Dec2015-v1.MINIAOD.2015_ReReco'
p403
g4
(g142
g6
Ntp404
Rp405
(dp406
g146
S'SingleMuon.Run2015D-16Dec2015-v1.MINIAOD.files'
p407
sg148
S'/SingleMuon/Run2015D-16Dec2015-v1/MINIAOD'
p408
sg150
I01
sg151
g152
sg153
S'EOS'
p409
sg155
S'/store/user/vkhriste/higgs_ntuples/data'
p410
sg157
Nsg158
S'76X_dataRun2_v15'
p411
sg160
S'Cert_13TeV_16Dec2015ReReco_Collisions15_25ns_JSON_v2.txt'
p412
sg161
I2015
sg162
S'76X'
p413
sg164
S'SingleMuon.Run2015D-16Dec2015-v1.MINIAOD'
p414
sg166
NsbsS'SingleMuon.Run2016D-PromptReco-v2.MINIAOD.2016_Prompt_7648'
p415
g4
(g142
g6
Ntp416
Rp417
(dp418
g146
g342
sg148
g343
sg150
I01
sg151
g152
sg153
g356
sg155
S'/store/user/vkhriste/higgs_ntuples/data'
p419
sg157
Nsg158
g358
sg160
g359
sg161
I2016
sg162
g360
sg164
g349
sg166
NsbsS'SingleMuon.Run2015C_25ns-05Oct2015-v1.MINIAOD.2015_Prompt'
p420
g4
(g142
g6
Ntp421
Rp422
(dp423
g146
S'SingleMuon.Run2015C_25ns-05Oct2015-v1.MINIAOD.files'
p424
sg148
S'/SingleMuon/Run2015C_25ns-05Oct2015-v1/MINIAOD'
p425
sg150
I01
sg151
g152
sg153
g368
sg155
S'/store/user/vkhriste/higgs_ntuples/data'
p426
sg157
Nsg158
g370
sg160
g371
sg161
I2015
sg162
g372
sg164
S'SingleMuon.Run2015C_25ns-05Oct2015-v1.MINIAOD'
p427
sg166
NsbsS'SingleMuon.Run2015C_25ns-16Dec2015-v1.MINIAOD.2015_ReReco'
p428
g4
(g142
g6
Ntp429
Rp430
(dp431
g146
S'SingleMuon.Run2015C_25ns-16Dec2015-v1.MINIAOD.files'
p432
sg148
S'/SingleMuon/Run2015C_25ns-16Dec2015-v1/MINIAOD'
p433
sg150
I01
sg151
g152
sg153
g409
sg155
S'/store/user/vkhriste/higgs_ntuples/data'
p434
sg157
Nsg158
g411
sg160
g412
sg161
I2015
sg162
g413
sg164
S'SingleMuon.Run2015C_25ns-16Dec2015-v1.MINIAOD'
p435
sg166
NsbsS'SingleMuon.Run2016E-PromptReco-v2.MINIAOD.2016_Prompt_16900'
p436
g4
(g142
g6
Ntp437
Rp438
(dp439
g146
g378
sg148
g379
sg150
I01
sg151
g152
sg153
g344
sg155
S'/store/user/vkhriste/higgs_ntuples/data'
p440
sg157
Nsg158
g346
sg160
g347
sg161
I2016
sg162
g348
sg164
g381
sg166
NsbsS'SingleMuon.Run2016C-PromptReco-v2.MINIAOD.2016_Prompt_16900'
p441
g4
(g142
g6
Ntp442
Rp443
(dp444
g146
g386
sg148
g387
sg150
I01
sg151
g152
sg153
g344
sg155
S'/store/user/vkhriste/higgs_ntuples/data'
p445
sg157
Nsg158
g346
sg160
g347
sg161
I2016
sg162
g348
sg164
g389
sg166
NsbssS'jsonfiles'
p446
(dp447
S'2016_Prompt_7648'
p448
g4
(cDataset
JsonFile
p449
g6
Ntp450
Rp451
(dp452
S'url'
p453
NsS'intlumi'
p454
F7648.0
sS'filename'
p455
g61
sbsS'2016_Prompt_12900'
p456
g4
(g449
g6
Ntp457
Rp458
(dp459
g453
Nsg454
F12900.0
sg455
g19
sbsS'2016_Prompt_16900'
p460
g4
(g449
g6
Ntp461
Rp462
(dp463
g453
Nsg454
F16900.0
sg455
g25
sbsS'2015_Prompt'
p464
g4
(g449
g6
Ntp465
Rp466
(dp467
g453
Nsg454
F2169.0
sg455
g70
sbsS'2015_ReReco'
p468
g4
(g449
g6
Ntp469
Rp470
(dp471
g453
Nsg454
F2318.0
sg455
g13
sbss.